
bin/spectre-v4.riscv：     文件格式 elf64-littleriscv


Disassembly of section .text:

00000000000100b0 <register_fini>:
   100b0:	ffff0797          	auipc	a5,0xffff0
   100b4:	f5078793          	addi	a5,a5,-176 # 0 <register_fini-0x100b0>
   100b8:	c799                	beqz	a5,100c6 <register_fini+0x16>
   100ba:	00003517          	auipc	a0,0x3
   100be:	afa50513          	addi	a0,a0,-1286 # 12bb4 <__libc_fini_array>
   100c2:	3330906f          	j	19bf4 <atexit>
   100c6:	8082                	ret

00000000000100c8 <_start>:
   100c8:	00010197          	auipc	gp,0x10
   100cc:	c6018193          	addi	gp,gp,-928 # 1fd28 <__global_pointer$>
   100d0:	87818513          	addi	a0,gp,-1928 # 1f5a0 <_edata>
   100d4:	00028617          	auipc	a2,0x28
   100d8:	5e460613          	addi	a2,a2,1508 # 386b8 <__BSS_END__>
   100dc:	8e09                	sub	a2,a2,a0
   100de:	4581                	li	a1,0
   100e0:	5f8000ef          	jal	ra,106d8 <memset>
   100e4:	0000a517          	auipc	a0,0xa
   100e8:	b1050513          	addi	a0,a0,-1264 # 19bf4 <atexit>
   100ec:	c519                	beqz	a0,100fa <_start+0x32>
   100ee:	00003517          	auipc	a0,0x3
   100f2:	ac650513          	addi	a0,a0,-1338 # 12bb4 <__libc_fini_array>
   100f6:	2ff090ef          	jal	ra,19bf4 <atexit>
   100fa:	574000ef          	jal	ra,1066e <__libc_init_array>
   100fe:	4502                	lw	a0,0(sp)
   10100:	002c                	addi	a1,sp,8
   10102:	4601                	li	a2,0
   10104:	2e6000ef          	jal	ra,103ea <main>
   10108:	a3a1                	j	10650 <exit>

000000000001010a <__do_global_dtors_aux>:
   1010a:	8a818793          	addi	a5,gp,-1880 # 1f5d0 <completed.5527>
   1010e:	0007c703          	lbu	a4,0(a5)
   10112:	eb0d                	bnez	a4,10144 <__do_global_dtors_aux+0x3a>
   10114:	1141                	addi	sp,sp,-16
   10116:	e022                	sd	s0,0(sp)
   10118:	e406                	sd	ra,8(sp)
   1011a:	843e                	mv	s0,a5
   1011c:	ffff0797          	auipc	a5,0xffff0
   10120:	ee478793          	addi	a5,a5,-284 # 0 <register_fini-0x100b0>
   10124:	cb89                	beqz	a5,10136 <__do_global_dtors_aux+0x2c>
   10126:	0000e517          	auipc	a0,0xe
   1012a:	24250513          	addi	a0,a0,578 # 1e368 <__FRAME_END__>
   1012e:	00000097          	auipc	ra,0x0
   10132:	000000e7          	jalr	zero # 0 <register_fini-0x100b0>
   10136:	4785                	li	a5,1
   10138:	60a2                	ld	ra,8(sp)
   1013a:	00f40023          	sb	a5,0(s0)
   1013e:	6402                	ld	s0,0(sp)
   10140:	0141                	addi	sp,sp,16
   10142:	8082                	ret
   10144:	8082                	ret

0000000000010146 <frame_dummy>:
   10146:	ffff0797          	auipc	a5,0xffff0
   1014a:	eba78793          	addi	a5,a5,-326 # 0 <register_fini-0x100b0>
   1014e:	cb99                	beqz	a5,10164 <frame_dummy+0x1e>
   10150:	8b018593          	addi	a1,gp,-1872 # 1f5d8 <object.5532>
   10154:	0000e517          	auipc	a0,0xe
   10158:	21450513          	addi	a0,a0,532 # 1e368 <__FRAME_END__>
   1015c:	00000317          	auipc	t1,0x0
   10160:	00000067          	jr	zero # 0 <register_fini-0x100b0>
   10164:	8082                	ret

0000000000010166 <flushCache>:
   10166:	711d                	addi	sp,sp,-96
   10168:	eca2                	sd	s0,88(sp)
   1016a:	1080                	addi	s0,sp,96
   1016c:	faa43423          	sd	a0,-88(s0)
   10170:	fab43023          	sd	a1,-96(s0)
   10174:	fa043783          	ld	a5,-96(s0)
   10178:	8399                	srli	a5,a5,0x6
   1017a:	fef43423          	sd	a5,-24(s0)
   1017e:	fa043783          	ld	a5,-96(s0)
   10182:	03f7f793          	andi	a5,a5,63
   10186:	c791                	beqz	a5,10192 <flushCache+0x2c>
   10188:	fe843783          	ld	a5,-24(s0)
   1018c:	0785                	addi	a5,a5,1
   1018e:	fef43423          	sd	a5,-24(s0)
   10192:	fe843703          	ld	a4,-24(s0)
   10196:	04000793          	li	a5,64
   1019a:	00e7f663          	bgeu	a5,a4,101a6 <flushCache+0x40>
   1019e:	04000793          	li	a5,64
   101a2:	fef43423          	sd	a5,-24(s0)
   101a6:	fc040ba3          	sb	zero,-41(s0)
   101aa:	000207b7          	lui	a5,0x20
   101ae:	e3078713          	addi	a4,a5,-464 # 1fe30 <dummyMem>
   101b2:	6791                	lui	a5,0x4
   101b4:	973e                	add	a4,a4,a5
   101b6:	77fd                	lui	a5,0xfffff
   101b8:	8ff9                	and	a5,a5,a4
   101ba:	fcf43423          	sd	a5,-56(s0)
   101be:	fe043023          	sd	zero,-32(s0)
   101c2:	a8b9                	j	10220 <flushCache+0xba>
   101c4:	fa843783          	ld	a5,-88(s0)
   101c8:	8399                	srli	a5,a5,0x6
   101ca:	03f7f713          	andi	a4,a5,63
   101ce:	fe043783          	ld	a5,-32(s0)
   101d2:	97ba                	add	a5,a5,a4
   101d4:	079a                	slli	a5,a5,0x6
   101d6:	fcf43023          	sd	a5,-64(s0)
   101da:	fc043c23          	sd	zero,-40(s0)
   101de:	a03d                	j	1020c <flushCache+0xa6>
   101e0:	fd843783          	ld	a5,-40(s0)
   101e4:	07b2                	slli	a5,a5,0xc
   101e6:	faf43c23          	sd	a5,-72(s0)
   101ea:	fc843703          	ld	a4,-56(s0)
   101ee:	fc043783          	ld	a5,-64(s0)
   101f2:	973e                	add	a4,a4,a5
   101f4:	fb843783          	ld	a5,-72(s0)
   101f8:	97ba                	add	a5,a5,a4
   101fa:	0007c783          	lbu	a5,0(a5) # fffffffffffff000 <__BSS_END__+0xfffffffffffc6948>
   101fe:	fcf40ba3          	sb	a5,-41(s0)
   10202:	fd843783          	ld	a5,-40(s0)
   10206:	0785                	addi	a5,a5,1
   10208:	fcf43c23          	sd	a5,-40(s0)
   1020c:	fd843703          	ld	a4,-40(s0)
   10210:	47bd                	li	a5,15
   10212:	fce7f7e3          	bgeu	a5,a4,101e0 <flushCache+0x7a>
   10216:	fe043783          	ld	a5,-32(s0)
   1021a:	0785                	addi	a5,a5,1
   1021c:	fef43023          	sd	a5,-32(s0)
   10220:	fe043703          	ld	a4,-32(s0)
   10224:	fe843783          	ld	a5,-24(s0)
   10228:	f8f76ee3          	bltu	a4,a5,101c4 <flushCache+0x5e>
   1022c:	0001                	nop
   1022e:	0001                	nop
   10230:	6466                	ld	s0,88(sp)
   10232:	6125                	addi	sp,sp,96
   10234:	8082                	ret

0000000000010236 <topTwoIdx>:
   10236:	7139                	addi	sp,sp,-64
   10238:	fc22                	sd	s0,56(sp)
   1023a:	0080                	addi	s0,sp,64
   1023c:	fca43c23          	sd	a0,-40(s0)
   10240:	fcb43823          	sd	a1,-48(s0)
   10244:	fcc43423          	sd	a2,-56(s0)
   10248:	fcd43023          	sd	a3,-64(s0)
   1024c:	fc043783          	ld	a5,-64(s0)
   10250:	0007b023          	sd	zero,0(a5)
   10254:	fc043783          	ld	a5,-64(s0)
   10258:	07a1                	addi	a5,a5,8
   1025a:	0007b023          	sd	zero,0(a5)
   1025e:	fe043423          	sd	zero,-24(s0)
   10262:	a075                	j	1030e <topTwoIdx+0xd8>
   10264:	fe843783          	ld	a5,-24(s0)
   10268:	078e                	slli	a5,a5,0x3
   1026a:	fd843703          	ld	a4,-40(s0)
   1026e:	97ba                	add	a5,a5,a4
   10270:	6398                	ld	a4,0(a5)
   10272:	fc043783          	ld	a5,-64(s0)
   10276:	639c                	ld	a5,0(a5)
   10278:	04e7f563          	bgeu	a5,a4,102c2 <topTwoIdx+0x8c>
   1027c:	fc043783          	ld	a5,-64(s0)
   10280:	07a1                	addi	a5,a5,8
   10282:	fc043703          	ld	a4,-64(s0)
   10286:	6318                	ld	a4,0(a4)
   10288:	e398                	sd	a4,0(a5)
   1028a:	fe843783          	ld	a5,-24(s0)
   1028e:	078e                	slli	a5,a5,0x3
   10290:	fd843703          	ld	a4,-40(s0)
   10294:	97ba                	add	a5,a5,a4
   10296:	6398                	ld	a4,0(a5)
   10298:	fc043783          	ld	a5,-64(s0)
   1029c:	e398                	sd	a4,0(a5)
   1029e:	fc843783          	ld	a5,-56(s0)
   102a2:	0785                	addi	a5,a5,1
   102a4:	fc843703          	ld	a4,-56(s0)
   102a8:	00074703          	lbu	a4,0(a4)
   102ac:	00e78023          	sb	a4,0(a5)
   102b0:	fe843783          	ld	a5,-24(s0)
   102b4:	0ff7f713          	andi	a4,a5,255
   102b8:	fc843783          	ld	a5,-56(s0)
   102bc:	00e78023          	sb	a4,0(a5)
   102c0:	a091                	j	10304 <topTwoIdx+0xce>
   102c2:	fe843783          	ld	a5,-24(s0)
   102c6:	078e                	slli	a5,a5,0x3
   102c8:	fd843703          	ld	a4,-40(s0)
   102cc:	97ba                	add	a5,a5,a4
   102ce:	6398                	ld	a4,0(a5)
   102d0:	fc043783          	ld	a5,-64(s0)
   102d4:	07a1                	addi	a5,a5,8
   102d6:	639c                	ld	a5,0(a5)
   102d8:	02e7f663          	bgeu	a5,a4,10304 <topTwoIdx+0xce>
   102dc:	fe843783          	ld	a5,-24(s0)
   102e0:	078e                	slli	a5,a5,0x3
   102e2:	fd843703          	ld	a4,-40(s0)
   102e6:	973e                	add	a4,a4,a5
   102e8:	fc043783          	ld	a5,-64(s0)
   102ec:	07a1                	addi	a5,a5,8
   102ee:	6318                	ld	a4,0(a4)
   102f0:	e398                	sd	a4,0(a5)
   102f2:	fc843783          	ld	a5,-56(s0)
   102f6:	0785                	addi	a5,a5,1
   102f8:	fe843703          	ld	a4,-24(s0)
   102fc:	0ff77713          	andi	a4,a4,255
   10300:	00e78023          	sb	a4,0(a5)
   10304:	fe843783          	ld	a5,-24(s0)
   10308:	0785                	addi	a5,a5,1
   1030a:	fef43423          	sd	a5,-24(s0)
   1030e:	fe843703          	ld	a4,-24(s0)
   10312:	fd043783          	ld	a5,-48(s0)
   10316:	f4f767e3          	bltu	a4,a5,10264 <topTwoIdx+0x2e>
   1031a:	0001                	nop
   1031c:	0001                	nop
   1031e:	7462                	ld	s0,56(sp)
   10320:	6121                	addi	sp,sp,64
   10322:	8082                	ret

0000000000010324 <victim_function>:
   10324:	7179                	addi	sp,sp,-48
   10326:	f406                	sd	ra,40(sp)
   10328:	f022                	sd	s0,32(sp)
   1032a:	1800                	addi	s0,sp,48
   1032c:	fca43c23          	sd	a0,-40(s0)
   10330:	000387b7          	lui	a5,0x38
   10334:	e7078793          	addi	a5,a5,-400 # 37e70 <str>
   10338:	fd843703          	ld	a4,-40(s0)
   1033c:	e798                	sd	a4,8(a5)
   1033e:	8501b783          	ld	a5,-1968(gp) # 1f578 <str_index>
   10342:	00179713          	slli	a4,a5,0x1
   10346:	84e1b823          	sd	a4,-1968(gp) # 1f578 <str_index>
   1034a:	8501b783          	ld	a5,-1968(gp) # 1f578 <str_index>
   1034e:	8581c703          	lbu	a4,-1960(gp) # 1f580 <dummy>
   10352:	d0377753          	fcvt.s.lu	fa4,a4
   10356:	d037f7d3          	fcvt.s.lu	fa5,a5
   1035a:	18e7f7d3          	fdiv.s	fa5,fa5,fa4
   1035e:	c0379753          	fcvt.lu.s	a4,fa5,rtz
   10362:	84e1b823          	sd	a4,-1968(gp) # 1f578 <str_index>
   10366:	8501b783          	ld	a5,-1968(gp) # 1f578 <str_index>
   1036a:	00038737          	lui	a4,0x38
   1036e:	e7070713          	addi	a4,a4,-400 # 37e70 <str>
   10372:	078e                	slli	a5,a5,0x3
   10374:	97ba                	add	a5,a5,a4
   10376:	0007b023          	sd	zero,0(a5)
   1037a:	8581c783          	lbu	a5,-1960(gp) # 1f580 <dummy>
   1037e:	0007871b          	sext.w	a4,a5
   10382:	8501b783          	ld	a5,-1968(gp) # 1f578 <str_index>
   10386:	863e                	mv	a2,a5
   10388:	85ba                	mv	a1,a4
   1038a:	67f1                	lui	a5,0x1c
   1038c:	55078513          	addi	a0,a5,1360 # 1c550 <__clzdi2+0x58>
   10390:	414000ef          	jal	ra,107a4 <printf>
   10394:	000387b7          	lui	a5,0x38
   10398:	e7078793          	addi	a5,a5,-400 # 37e70 <str>
   1039c:	679c                	ld	a5,8(a5)
   1039e:	6779                	lui	a4,0x1e
   103a0:	38870713          	addi	a4,a4,904 # 1e388 <__fini_array_end>
   103a4:	97ba                	add	a5,a5,a4
   103a6:	0007c783          	lbu	a5,0(a5)
   103aa:	2781                	sext.w	a5,a5
   103ac:	0067979b          	slliw	a5,a5,0x6
   103b0:	2781                	sext.w	a5,a5
   103b2:	00034737          	lui	a4,0x34
   103b6:	e7070713          	addi	a4,a4,-400 # 33e70 <array2>
   103ba:	97ba                	add	a5,a5,a4
   103bc:	0007c783          	lbu	a5,0(a5)
   103c0:	873e                	mv	a4,a5
   103c2:	8781b783          	ld	a5,-1928(gp) # 1f5a0 <_edata>
   103c6:	8f7d                	and	a4,a4,a5
   103c8:	86e1bc23          	sd	a4,-1928(gp) # 1f5a0 <_edata>
   103cc:	c00027f3          	rdcycle	a5
   103d0:	fef43423          	sd	a5,-24(s0)
   103d4:	fe843783          	ld	a5,-24(s0)
   103d8:	0ff7f713          	andi	a4,a5,255
   103dc:	84e18c23          	sb	a4,-1960(gp) # 1f580 <dummy>
   103e0:	0001                	nop
   103e2:	70a2                	ld	ra,40(sp)
   103e4:	7402                	ld	s0,32(sp)
   103e6:	6145                	addi	sp,sp,48
   103e8:	8082                	ret

00000000000103ea <main>:
   103ea:	7175                	addi	sp,sp,-144
   103ec:	e506                	sd	ra,136(sp)
   103ee:	e122                	sd	s0,128(sp)
   103f0:	0900                	addi	s0,sp,144
   103f2:	8481b703          	ld	a4,-1976(gp) # 1f570 <secretString>
   103f6:	67f9                	lui	a5,0x1e
   103f8:	38878793          	addi	a5,a5,904 # 1e388 <__fini_array_end>
   103fc:	40f707b3          	sub	a5,a4,a5
   10400:	fef43423          	sd	a5,-24(s0)
   10404:	67f1                	lui	a5,0x1c
   10406:	55878513          	addi	a0,a5,1368 # 1c558 <__clzdi2+0x60>
   1040a:	446000ef          	jal	ra,10850 <puts>
   1040e:	8481b783          	ld	a5,-1976(gp) # 1f570 <secretString>
   10412:	85be                	mv	a1,a5
   10414:	67f1                	lui	a5,0x1c
   10416:	58878513          	addi	a0,a5,1416 # 1c588 <__clzdi2+0x90>
   1041a:	38a000ef          	jal	ra,107a4 <printf>
   1041e:	fe043023          	sd	zero,-32(s0)
   10422:	ac21                	j	1063a <main+0x250>
   10424:	fc043c23          	sd	zero,-40(s0)
   10428:	a005                	j	10448 <main+0x5e>
   1042a:	0001f7b7          	lui	a5,0x1f
   1042e:	60878713          	addi	a4,a5,1544 # 1f608 <results.2598>
   10432:	fd843783          	ld	a5,-40(s0)
   10436:	078e                	slli	a5,a5,0x3
   10438:	97ba                	add	a5,a5,a4
   1043a:	0007b023          	sd	zero,0(a5)
   1043e:	fd843783          	ld	a5,-40(s0)
   10442:	0785                	addi	a5,a5,1
   10444:	fcf43c23          	sd	a5,-40(s0)
   10448:	fd843703          	ld	a4,-40(s0)
   1044c:	0ff00793          	li	a5,255
   10450:	fce7fde3          	bgeu	a5,a4,1042a <main+0x40>
   10454:	fc043823          	sd	zero,-48(s0)
   10458:	a0c9                	j	1051a <main+0x130>
   1045a:	000347b7          	lui	a5,0x34
   1045e:	e7078793          	addi	a5,a5,-400 # 33e70 <array2>
   10462:	6591                	lui	a1,0x4
   10464:	853e                	mv	a0,a5
   10466:	d01ff0ef          	jal	ra,10166 <flushCache>
   1046a:	fe843503          	ld	a0,-24(s0)
   1046e:	eb7ff0ef          	jal	ra,10324 <victim_function>
   10472:	fc043423          	sd	zero,-56(s0)
   10476:	a079                	j	10504 <main+0x11a>
   10478:	fc043023          	sd	zero,-64(s0)
   1047c:	c00027f3          	rdcycle	a5
   10480:	faf43c23          	sd	a5,-72(s0)
   10484:	fb843783          	ld	a5,-72(s0)
   10488:	faf43823          	sd	a5,-80(s0)
   1048c:	fc843783          	ld	a5,-56(s0)
   10490:	079a                	slli	a5,a5,0x6
   10492:	00034737          	lui	a4,0x34
   10496:	e7070713          	addi	a4,a4,-400 # 33e70 <array2>
   1049a:	97ba                	add	a5,a5,a4
   1049c:	0007c703          	lbu	a4,0(a5)
   104a0:	8581c783          	lbu	a5,-1960(gp) # 1f580 <dummy>
   104a4:	8ff9                	and	a5,a5,a4
   104a6:	0ff7f713          	andi	a4,a5,255
   104aa:	84e18c23          	sb	a4,-1960(gp) # 1f580 <dummy>
   104ae:	c00027f3          	rdcycle	a5
   104b2:	faf43423          	sd	a5,-88(s0)
   104b6:	fa843703          	ld	a4,-88(s0)
   104ba:	fb043783          	ld	a5,-80(s0)
   104be:	40f707b3          	sub	a5,a4,a5
   104c2:	faf43023          	sd	a5,-96(s0)
   104c6:	fa043703          	ld	a4,-96(s0)
   104ca:	03100793          	li	a5,49
   104ce:	02e7e663          	bltu	a5,a4,104fa <main+0x110>
   104d2:	0001f7b7          	lui	a5,0x1f
   104d6:	60878713          	addi	a4,a5,1544 # 1f608 <results.2598>
   104da:	fc843783          	ld	a5,-56(s0)
   104de:	078e                	slli	a5,a5,0x3
   104e0:	97ba                	add	a5,a5,a4
   104e2:	639c                	ld	a5,0(a5)
   104e4:	00178713          	addi	a4,a5,1
   104e8:	0001f7b7          	lui	a5,0x1f
   104ec:	60878693          	addi	a3,a5,1544 # 1f608 <results.2598>
   104f0:	fc843783          	ld	a5,-56(s0)
   104f4:	078e                	slli	a5,a5,0x3
   104f6:	97b6                	add	a5,a5,a3
   104f8:	e398                	sd	a4,0(a5)
   104fa:	fc843783          	ld	a5,-56(s0)
   104fe:	0785                	addi	a5,a5,1
   10500:	fcf43423          	sd	a5,-56(s0)
   10504:	fc843703          	ld	a4,-56(s0)
   10508:	0ff00793          	li	a5,255
   1050c:	f6e7f6e3          	bgeu	a5,a4,10478 <main+0x8e>
   10510:	fd043783          	ld	a5,-48(s0)
   10514:	0785                	addi	a5,a5,1
   10516:	fcf43823          	sd	a5,-48(s0)
   1051a:	fd043703          	ld	a4,-48(s0)
   1051e:	47a5                	li	a5,9
   10520:	f2e7fde3          	bgeu	a5,a4,1045a <main+0x70>
   10524:	f8041c23          	sh	zero,-104(s0)
   10528:	f8043423          	sd	zero,-120(s0)
   1052c:	f8043823          	sd	zero,-112(s0)
   10530:	f8840713          	addi	a4,s0,-120
   10534:	f9840793          	addi	a5,s0,-104
   10538:	86ba                	mv	a3,a4
   1053a:	863e                	mv	a2,a5
   1053c:	10000593          	li	a1,256
   10540:	0001f7b7          	lui	a5,0x1f
   10544:	60878513          	addi	a0,a5,1544 # 1f608 <results.2598>
   10548:	cefff0ef          	jal	ra,10236 <topTwoIdx>
   1054c:	f9844683          	lbu	a3,-104(s0)
   10550:	8481b703          	ld	a4,-1976(gp) # 1f570 <secretString>
   10554:	fe043783          	ld	a5,-32(s0)
   10558:	97ba                	add	a5,a5,a4
   1055a:	0007c783          	lbu	a5,0(a5)
   1055e:	8736                	mv	a4,a3
   10560:	00f70e63          	beq	a4,a5,1057c <main+0x192>
   10564:	f9944683          	lbu	a3,-103(s0)
   10568:	8481b703          	ld	a4,-1976(gp) # 1f570 <secretString>
   1056c:	fe043783          	ld	a5,-32(s0)
   10570:	97ba                	add	a5,a5,a4
   10572:	0007c783          	lbu	a5,0(a5)
   10576:	8736                	mv	a4,a3
   10578:	04f71d63          	bne	a4,a5,105d2 <main+0x1e8>
   1057c:	fe843703          	ld	a4,-24(s0)
   10580:	67f9                	lui	a5,0x1e
   10582:	38878793          	addi	a5,a5,904 # 1e388 <__fini_array_end>
   10586:	00f705b3          	add	a1,a4,a5
   1058a:	8481b703          	ld	a4,-1976(gp) # 1f570 <secretString>
   1058e:	fe043783          	ld	a5,-32(s0)
   10592:	97ba                	add	a5,a5,a4
   10594:	0007c783          	lbu	a5,0(a5)
   10598:	0007861b          	sext.w	a2,a5
   1059c:	f8843683          	ld	a3,-120(s0)
   105a0:	f9844783          	lbu	a5,-104(s0)
   105a4:	0007871b          	sext.w	a4,a5
   105a8:	f9844783          	lbu	a5,-104(s0)
   105ac:	0007851b          	sext.w	a0,a5
   105b0:	f9043803          	ld	a6,-112(s0)
   105b4:	f9944783          	lbu	a5,-103(s0)
   105b8:	0007889b          	sext.w	a7,a5
   105bc:	f9944783          	lbu	a5,-103(s0)
   105c0:	2781                	sext.w	a5,a5
   105c2:	e03e                	sd	a5,0(sp)
   105c4:	87aa                	mv	a5,a0
   105c6:	6571                	lui	a0,0x1c
   105c8:	5a050513          	addi	a0,a0,1440 # 1c5a0 <__clzdi2+0xa8>
   105cc:	1d8000ef          	jal	ra,107a4 <printf>
   105d0:	a899                	j	10626 <main+0x23c>
   105d2:	fe843703          	ld	a4,-24(s0)
   105d6:	67f9                	lui	a5,0x1e
   105d8:	38878793          	addi	a5,a5,904 # 1e388 <__fini_array_end>
   105dc:	00f705b3          	add	a1,a4,a5
   105e0:	8481b703          	ld	a4,-1976(gp) # 1f570 <secretString>
   105e4:	fe043783          	ld	a5,-32(s0)
   105e8:	97ba                	add	a5,a5,a4
   105ea:	0007c783          	lbu	a5,0(a5)
   105ee:	0007861b          	sext.w	a2,a5
   105f2:	f8843683          	ld	a3,-120(s0)
   105f6:	f9844783          	lbu	a5,-104(s0)
   105fa:	0007871b          	sext.w	a4,a5
   105fe:	f9844783          	lbu	a5,-104(s0)
   10602:	0007851b          	sext.w	a0,a5
   10606:	f9043803          	ld	a6,-112(s0)
   1060a:	f9944783          	lbu	a5,-103(s0)
   1060e:	0007889b          	sext.w	a7,a5
   10612:	f9944783          	lbu	a5,-103(s0)
   10616:	2781                	sext.w	a5,a5
   10618:	e03e                	sd	a5,0(sp)
   1061a:	87aa                	mv	a5,a0
   1061c:	6571                	lui	a0,0x1c
   1061e:	60050513          	addi	a0,a0,1536 # 1c600 <__clzdi2+0x108>
   10622:	182000ef          	jal	ra,107a4 <printf>
   10626:	fe843783          	ld	a5,-24(s0)
   1062a:	0785                	addi	a5,a5,1
   1062c:	fef43423          	sd	a5,-24(s0)
   10630:	fe043783          	ld	a5,-32(s0)
   10634:	0785                	addi	a5,a5,1
   10636:	fef43023          	sd	a5,-32(s0)
   1063a:	fe043703          	ld	a4,-32(s0)
   1063e:	47e5                	li	a5,25
   10640:	dee7f2e3          	bgeu	a5,a4,10424 <main+0x3a>
   10644:	4781                	li	a5,0
   10646:	853e                	mv	a0,a5
   10648:	60aa                	ld	ra,136(sp)
   1064a:	640a                	ld	s0,128(sp)
   1064c:	6149                	addi	sp,sp,144
   1064e:	8082                	ret

0000000000010650 <exit>:
   10650:	1141                	addi	sp,sp,-16
   10652:	4581                	li	a1,0
   10654:	e022                	sd	s0,0(sp)
   10656:	e406                	sd	ra,8(sp)
   10658:	842a                	mv	s0,a0
   1065a:	03c020ef          	jal	ra,12696 <__call_exitprocs>
   1065e:	8301b503          	ld	a0,-2000(gp) # 1f558 <_global_impure_ptr>
   10662:	6d3c                	ld	a5,88(a0)
   10664:	c391                	beqz	a5,10668 <exit+0x18>
   10666:	9782                	jalr	a5
   10668:	8522                	mv	a0,s0
   1066a:	0bf0a0ef          	jal	ra,1af28 <_exit>

000000000001066e <__libc_init_array>:
   1066e:	1101                	addi	sp,sp,-32
   10670:	e822                	sd	s0,16(sp)
   10672:	e04a                	sd	s2,0(sp)
   10674:	0000e417          	auipc	s0,0xe
   10678:	cf840413          	addi	s0,s0,-776 # 1e36c <__preinit_array_end>
   1067c:	0000e917          	auipc	s2,0xe
   10680:	cf090913          	addi	s2,s2,-784 # 1e36c <__preinit_array_end>
   10684:	40890933          	sub	s2,s2,s0
   10688:	ec06                	sd	ra,24(sp)
   1068a:	e426                	sd	s1,8(sp)
   1068c:	40395913          	srai	s2,s2,0x3
   10690:	00090963          	beqz	s2,106a2 <__libc_init_array+0x34>
   10694:	4481                	li	s1,0
   10696:	601c                	ld	a5,0(s0)
   10698:	0485                	addi	s1,s1,1
   1069a:	0421                	addi	s0,s0,8
   1069c:	9782                	jalr	a5
   1069e:	fe991ce3          	bne	s2,s1,10696 <__libc_init_array+0x28>
   106a2:	0000e417          	auipc	s0,0xe
   106a6:	cce40413          	addi	s0,s0,-818 # 1e370 <__init_array_start>
   106aa:	0000e917          	auipc	s2,0xe
   106ae:	cd690913          	addi	s2,s2,-810 # 1e380 <__init_array_end>
   106b2:	40890933          	sub	s2,s2,s0
   106b6:	40395913          	srai	s2,s2,0x3
   106ba:	00090963          	beqz	s2,106cc <__libc_init_array+0x5e>
   106be:	4481                	li	s1,0
   106c0:	601c                	ld	a5,0(s0)
   106c2:	0485                	addi	s1,s1,1
   106c4:	0421                	addi	s0,s0,8
   106c6:	9782                	jalr	a5
   106c8:	fe991ce3          	bne	s2,s1,106c0 <__libc_init_array+0x52>
   106cc:	60e2                	ld	ra,24(sp)
   106ce:	6442                	ld	s0,16(sp)
   106d0:	64a2                	ld	s1,8(sp)
   106d2:	6902                	ld	s2,0(sp)
   106d4:	6105                	addi	sp,sp,32
   106d6:	8082                	ret

00000000000106d8 <memset>:
   106d8:	433d                	li	t1,15
   106da:	872a                	mv	a4,a0
   106dc:	02c37163          	bgeu	t1,a2,106fe <memset+0x26>
   106e0:	00f77793          	andi	a5,a4,15
   106e4:	e3c1                	bnez	a5,10764 <memset+0x8c>
   106e6:	e1bd                	bnez	a1,1074c <memset+0x74>
   106e8:	ff067693          	andi	a3,a2,-16
   106ec:	8a3d                	andi	a2,a2,15
   106ee:	96ba                	add	a3,a3,a4
   106f0:	e30c                	sd	a1,0(a4)
   106f2:	e70c                	sd	a1,8(a4)
   106f4:	0741                	addi	a4,a4,16
   106f6:	fed76de3          	bltu	a4,a3,106f0 <memset+0x18>
   106fa:	e211                	bnez	a2,106fe <memset+0x26>
   106fc:	8082                	ret
   106fe:	40c306b3          	sub	a3,t1,a2
   10702:	068a                	slli	a3,a3,0x2
   10704:	00000297          	auipc	t0,0x0
   10708:	9696                	add	a3,a3,t0
   1070a:	00a68067          	jr	10(a3)
   1070e:	00b70723          	sb	a1,14(a4)
   10712:	00b706a3          	sb	a1,13(a4)
   10716:	00b70623          	sb	a1,12(a4)
   1071a:	00b705a3          	sb	a1,11(a4)
   1071e:	00b70523          	sb	a1,10(a4)
   10722:	00b704a3          	sb	a1,9(a4)
   10726:	00b70423          	sb	a1,8(a4)
   1072a:	00b703a3          	sb	a1,7(a4)
   1072e:	00b70323          	sb	a1,6(a4)
   10732:	00b702a3          	sb	a1,5(a4)
   10736:	00b70223          	sb	a1,4(a4)
   1073a:	00b701a3          	sb	a1,3(a4)
   1073e:	00b70123          	sb	a1,2(a4)
   10742:	00b700a3          	sb	a1,1(a4)
   10746:	00b70023          	sb	a1,0(a4)
   1074a:	8082                	ret
   1074c:	0ff5f593          	andi	a1,a1,255
   10750:	00859693          	slli	a3,a1,0x8
   10754:	8dd5                	or	a1,a1,a3
   10756:	01059693          	slli	a3,a1,0x10
   1075a:	8dd5                	or	a1,a1,a3
   1075c:	02059693          	slli	a3,a1,0x20
   10760:	8dd5                	or	a1,a1,a3
   10762:	b759                	j	106e8 <memset+0x10>
   10764:	00279693          	slli	a3,a5,0x2
   10768:	00000297          	auipc	t0,0x0
   1076c:	9696                	add	a3,a3,t0
   1076e:	8286                	mv	t0,ra
   10770:	fa2680e7          	jalr	-94(a3)
   10774:	8096                	mv	ra,t0
   10776:	17c1                	addi	a5,a5,-16
   10778:	8f1d                	sub	a4,a4,a5
   1077a:	963e                	add	a2,a2,a5
   1077c:	f8c371e3          	bgeu	t1,a2,106fe <memset+0x26>
   10780:	b79d                	j	106e6 <memset+0xe>

0000000000010782 <_printf_r>:
   10782:	715d                	addi	sp,sp,-80
   10784:	f032                	sd	a2,32(sp)
   10786:	f436                	sd	a3,40(sp)
   10788:	f83a                	sd	a4,48(sp)
   1078a:	fc3e                	sd	a5,56(sp)
   1078c:	e0c2                	sd	a6,64(sp)
   1078e:	e4c6                	sd	a7,72(sp)
   10790:	862e                	mv	a2,a1
   10792:	690c                	ld	a1,16(a0)
   10794:	1014                	addi	a3,sp,32
   10796:	ec06                	sd	ra,24(sp)
   10798:	e436                	sd	a3,8(sp)
   1079a:	152000ef          	jal	ra,108ec <_vfprintf_r>
   1079e:	60e2                	ld	ra,24(sp)
   107a0:	6161                	addi	sp,sp,80
   107a2:	8082                	ret

00000000000107a4 <printf>:
   107a4:	711d                	addi	sp,sp,-96
   107a6:	f832                	sd	a2,48(sp)
   107a8:	fc36                	sd	a3,56(sp)
   107aa:	8601b303          	ld	t1,-1952(gp) # 1f588 <_impure_ptr>
   107ae:	f42e                	sd	a1,40(sp)
   107b0:	e0ba                	sd	a4,64(sp)
   107b2:	e4be                	sd	a5,72(sp)
   107b4:	e8c2                	sd	a6,80(sp)
   107b6:	ecc6                	sd	a7,88(sp)
   107b8:	01033583          	ld	a1,16(t1) # 1016c <flushCache+0x6>
   107bc:	1034                	addi	a3,sp,40
   107be:	862a                	mv	a2,a0
   107c0:	851a                	mv	a0,t1
   107c2:	ec06                	sd	ra,24(sp)
   107c4:	e436                	sd	a3,8(sp)
   107c6:	126000ef          	jal	ra,108ec <_vfprintf_r>
   107ca:	60e2                	ld	ra,24(sp)
   107cc:	6125                	addi	sp,sp,96
   107ce:	8082                	ret

00000000000107d0 <_puts_r>:
   107d0:	7159                	addi	sp,sp,-112
   107d2:	f0a2                	sd	s0,96(sp)
   107d4:	842a                	mv	s0,a0
   107d6:	852e                	mv	a0,a1
   107d8:	eca6                	sd	s1,88(sp)
   107da:	f486                	sd	ra,104(sp)
   107dc:	84ae                	mv	s1,a1
   107de:	07a000ef          	jal	ra,10858 <strlen>
   107e2:	00150713          	addi	a4,a0,1
   107e6:	0000c697          	auipc	a3,0xc
   107ea:	e7a68693          	addi	a3,a3,-390 # 1c660 <__clzdi2+0x168>
   107ee:	f43a                	sd	a4,40(sp)
   107f0:	483c                	lw	a5,80(s0)
   107f2:	1818                	addi	a4,sp,48
   107f4:	e0b6                	sd	a3,64(sp)
   107f6:	ec3a                	sd	a4,24(sp)
   107f8:	4685                	li	a3,1
   107fa:	4709                	li	a4,2
   107fc:	f826                	sd	s1,48(sp)
   107fe:	fc2a                	sd	a0,56(sp)
   10800:	e4b6                	sd	a3,72(sp)
   10802:	d03a                	sw	a4,32(sp)
   10804:	680c                	ld	a1,16(s0)
   10806:	cf8d                	beqz	a5,10840 <_puts_r+0x70>
   10808:	01059783          	lh	a5,16(a1) # 4010 <register_fini-0xc0a0>
   1080c:	03279713          	slli	a4,a5,0x32
   10810:	00074d63          	bltz	a4,1082a <_puts_r+0x5a>
   10814:	0ac5a703          	lw	a4,172(a1)
   10818:	6689                	lui	a3,0x2
   1081a:	8fd5                	or	a5,a5,a3
   1081c:	76f9                	lui	a3,0xffffe
   1081e:	16fd                	addi	a3,a3,-1
   10820:	8f75                	and	a4,a4,a3
   10822:	00f59823          	sh	a5,16(a1)
   10826:	0ae5a623          	sw	a4,172(a1)
   1082a:	0830                	addi	a2,sp,24
   1082c:	8522                	mv	a0,s0
   1082e:	6dc020ef          	jal	ra,12f0a <__sfvwrite_r>
   10832:	ed09                	bnez	a0,1084c <_puts_r+0x7c>
   10834:	4529                	li	a0,10
   10836:	70a6                	ld	ra,104(sp)
   10838:	7406                	ld	s0,96(sp)
   1083a:	64e6                	ld	s1,88(sp)
   1083c:	6165                	addi	sp,sp,112
   1083e:	8082                	ret
   10840:	8522                	mv	a0,s0
   10842:	e42e                	sd	a1,8(sp)
   10844:	344020ef          	jal	ra,12b88 <__sinit>
   10848:	65a2                	ld	a1,8(sp)
   1084a:	bf7d                	j	10808 <_puts_r+0x38>
   1084c:	557d                	li	a0,-1
   1084e:	b7e5                	j	10836 <_puts_r+0x66>

0000000000010850 <puts>:
   10850:	85aa                	mv	a1,a0
   10852:	8601b503          	ld	a0,-1952(gp) # 1f588 <_impure_ptr>
   10856:	bfad                	j	107d0 <_puts_r>

0000000000010858 <strlen>:
   10858:	00757793          	andi	a5,a0,7
   1085c:	872a                	mv	a4,a0
   1085e:	ebb9                	bnez	a5,108b4 <strlen+0x5c>
   10860:	0000f697          	auipc	a3,0xf
   10864:	cc86b683          	ld	a3,-824(a3) # 1f528 <__SDATA_BEGIN__>
   10868:	55fd                	li	a1,-1
   1086a:	6310                	ld	a2,0(a4)
   1086c:	0721                	addi	a4,a4,8
   1086e:	00d677b3          	and	a5,a2,a3
   10872:	97b6                	add	a5,a5,a3
   10874:	8fd1                	or	a5,a5,a2
   10876:	8fd5                	or	a5,a5,a3
   10878:	feb789e3          	beq	a5,a1,1086a <strlen+0x12>
   1087c:	ff874683          	lbu	a3,-8(a4)
   10880:	40a707b3          	sub	a5,a4,a0
   10884:	c6a9                	beqz	a3,108ce <strlen+0x76>
   10886:	ff974683          	lbu	a3,-7(a4)
   1088a:	ce9d                	beqz	a3,108c8 <strlen+0x70>
   1088c:	ffa74683          	lbu	a3,-6(a4)
   10890:	c6a9                	beqz	a3,108da <strlen+0x82>
   10892:	ffb74683          	lbu	a3,-5(a4)
   10896:	ce9d                	beqz	a3,108d4 <strlen+0x7c>
   10898:	ffc74683          	lbu	a3,-4(a4)
   1089c:	ffd74603          	lbu	a2,-3(a4)
   108a0:	ffe74503          	lbu	a0,-2(a4)
   108a4:	ce95                	beqz	a3,108e0 <strlen+0x88>
   108a6:	c221                	beqz	a2,108e6 <strlen+0x8e>
   108a8:	00a03533          	snez	a0,a0
   108ac:	953e                	add	a0,a0,a5
   108ae:	1579                	addi	a0,a0,-2
   108b0:	8082                	ret
   108b2:	d6dd                	beqz	a3,10860 <strlen+0x8>
   108b4:	00074783          	lbu	a5,0(a4)
   108b8:	0705                	addi	a4,a4,1
   108ba:	00777693          	andi	a3,a4,7
   108be:	fbf5                	bnez	a5,108b2 <strlen+0x5a>
   108c0:	8f09                	sub	a4,a4,a0
   108c2:	fff70513          	addi	a0,a4,-1
   108c6:	8082                	ret
   108c8:	ff978513          	addi	a0,a5,-7
   108cc:	8082                	ret
   108ce:	ff878513          	addi	a0,a5,-8
   108d2:	8082                	ret
   108d4:	ffb78513          	addi	a0,a5,-5
   108d8:	8082                	ret
   108da:	ffa78513          	addi	a0,a5,-6
   108de:	8082                	ret
   108e0:	ffc78513          	addi	a0,a5,-4
   108e4:	8082                	ret
   108e6:	ffd78513          	addi	a0,a5,-3
   108ea:	8082                	ret

00000000000108ec <_vfprintf_r>:
   108ec:	d8010113          	addi	sp,sp,-640
   108f0:	26113c23          	sd	ra,632(sp)
   108f4:	25413823          	sd	s4,592(sp)
   108f8:	25513423          	sd	s5,584(sp)
   108fc:	23913423          	sd	s9,552(sp)
   10900:	8a2e                	mv	s4,a1
   10902:	8cb2                	mv	s9,a2
   10904:	e836                	sd	a3,16(sp)
   10906:	26813823          	sd	s0,624(sp)
   1090a:	26913423          	sd	s1,616(sp)
   1090e:	27213023          	sd	s2,608(sp)
   10912:	25313c23          	sd	s3,600(sp)
   10916:	25613023          	sd	s6,576(sp)
   1091a:	23713c23          	sd	s7,568(sp)
   1091e:	23813823          	sd	s8,560(sp)
   10922:	23a13023          	sd	s10,544(sp)
   10926:	21b13c23          	sd	s11,536(sp)
   1092a:	8aaa                	mv	s5,a0
   1092c:	2c5040ef          	jal	ra,153f0 <_localeconv_r>
   10930:	611c                	ld	a5,0(a0)
   10932:	853e                	mv	a0,a5
   10934:	fcbe                	sd	a5,120(sp)
   10936:	f23ff0ef          	jal	ra,10858 <strlen>
   1093a:	f8aa                	sd	a0,112(sp)
   1093c:	e202                	sd	zero,256(sp)
   1093e:	e602                	sd	zero,264(sp)
   10940:	000a8663          	beqz	s5,1094c <_vfprintf_r+0x60>
   10944:	050aa783          	lw	a5,80(s5)
   10948:	70078063          	beqz	a5,11048 <_vfprintf_r+0x75c>
   1094c:	010a1703          	lh	a4,16(s4)
   10950:	03071793          	slli	a5,a4,0x30
   10954:	03271693          	slli	a3,a4,0x32
   10958:	93c1                	srli	a5,a5,0x30
   1095a:	0006cf63          	bltz	a3,10978 <_vfprintf_r+0x8c>
   1095e:	0aca2683          	lw	a3,172(s4)
   10962:	6789                	lui	a5,0x2
   10964:	8fd9                	or	a5,a5,a4
   10966:	7779                	lui	a4,0xffffe
   10968:	177d                	addi	a4,a4,-1
   1096a:	8f75                	and	a4,a4,a3
   1096c:	00fa1823          	sh	a5,16(s4)
   10970:	17c2                	slli	a5,a5,0x30
   10972:	0aea2623          	sw	a4,172(s4)
   10976:	93c1                	srli	a5,a5,0x30
   10978:	0087f713          	andi	a4,a5,8
   1097c:	26070463          	beqz	a4,10be4 <_vfprintf_r+0x2f8>
   10980:	018a3703          	ld	a4,24(s4)
   10984:	26070063          	beqz	a4,10be4 <_vfprintf_r+0x2f8>
   10988:	8be9                	andi	a5,a5,26
   1098a:	4729                	li	a4,10
   1098c:	26e78963          	beq	a5,a4,10bfe <_vfprintf_r+0x312>
   10990:	000cc783          	lbu	a5,0(s9)
   10994:	19010b93          	addi	s7,sp,400
   10998:	ea5e                	sd	s7,272(sp)
   1099a:	f202                	sd	zero,288(sp)
   1099c:	10012c23          	sw	zero,280(sp)
   109a0:	f002                	sd	zero,32(sp)
   109a2:	f402                	sd	zero,40(sp)
   109a4:	e102                	sd	zero,128(sp)
   109a6:	f482                	sd	zero,104(sp)
   109a8:	e502                	sd	zero,136(sp)
   109aa:	e902                	sd	zero,144(sp)
   109ac:	e002                	sd	zero,0(sp)
   109ae:	835e                	mv	t1,s7
   109b0:	4d41                	li	s10,16
   109b2:	0000c917          	auipc	s2,0xc
   109b6:	e9690913          	addi	s2,s2,-362 # 1c848 <zeroes.4521>
   109ba:	1c078663          	beqz	a5,10b86 <_vfprintf_r+0x29a>
   109be:	8466                	mv	s0,s9
   109c0:	02500713          	li	a4,37
   109c4:	30e78463          	beq	a5,a4,10ccc <_vfprintf_r+0x3e0>
   109c8:	00144783          	lbu	a5,1(s0)
   109cc:	0405                	addi	s0,s0,1
   109ce:	fbfd                	bnez	a5,109c4 <_vfprintf_r+0xd8>
   109d0:	419404bb          	subw	s1,s0,s9
   109d4:	1a048963          	beqz	s1,10b86 <_vfprintf_r+0x29a>
   109d8:	7712                	ld	a4,288(sp)
   109da:	11812783          	lw	a5,280(sp)
   109de:	01933023          	sd	s9,0(t1)
   109e2:	9726                	add	a4,a4,s1
   109e4:	2785                	addiw	a5,a5,1
   109e6:	00933423          	sd	s1,8(t1)
   109ea:	f23a                	sd	a4,288(sp)
   109ec:	10f12c23          	sw	a5,280(sp)
   109f0:	0007871b          	sext.w	a4,a5
   109f4:	479d                	li	a5,7
   109f6:	0341                	addi	t1,t1,16
   109f8:	2ee7c163          	blt	a5,a4,10cda <_vfprintf_r+0x3ee>
   109fc:	6702                	ld	a4,0(sp)
   109fe:	00044783          	lbu	a5,0(s0)
   10a02:	9f25                	addw	a4,a4,s1
   10a04:	e03a                	sd	a4,0(sp)
   10a06:	18078063          	beqz	a5,10b86 <_vfprintf_r+0x29a>
   10a0a:	00144f03          	lbu	t5,1(s0)
   10a0e:	0c010fa3          	sb	zero,223(sp)
   10a12:	0405                	addi	s0,s0,1
   10a14:	5efd                	li	t4,-1
   10a16:	4b01                	li	s6,0
   10a18:	4481                	li	s1,0
   10a1a:	49a5                	li	s3,9
   10a1c:	02a00c13          	li	s8,42
   10a20:	0405                	addi	s0,s0,1
   10a22:	000f0d9b          	sext.w	s11,t5
   10a26:	05a00693          	li	a3,90
   10a2a:	fe0d879b          	addiw	a5,s11,-32
   10a2e:	0007871b          	sext.w	a4,a5
   10a32:	04e6e663          	bltu	a3,a4,10a7e <_vfprintf_r+0x192>
   10a36:	1782                	slli	a5,a5,0x20
   10a38:	0000c717          	auipc	a4,0xc
   10a3c:	c9070713          	addi	a4,a4,-880 # 1c6c8 <__clzdi2+0x1d0>
   10a40:	83f9                	srli	a5,a5,0x1e
   10a42:	97ba                	add	a5,a5,a4
   10a44:	439c                	lw	a5,0(a5)
   10a46:	97ba                	add	a5,a5,a4
   10a48:	8782                	jr	a5
   10a4a:	4b01                	li	s6,0
   10a4c:	00044703          	lbu	a4,0(s0)
   10a50:	002b179b          	slliw	a5,s6,0x2
   10a54:	01678b3b          	addw	s6,a5,s6
   10a58:	fd0d8f1b          	addiw	t5,s11,-48
   10a5c:	001b1b1b          	slliw	s6,s6,0x1
   10a60:	fd07079b          	addiw	a5,a4,-48
   10a64:	0405                	addi	s0,s0,1
   10a66:	016f0b3b          	addw	s6,t5,s6
   10a6a:	00070d9b          	sext.w	s11,a4
   10a6e:	fcf9ffe3          	bgeu	s3,a5,10a4c <_vfprintf_r+0x160>
   10a72:	fe0d879b          	addiw	a5,s11,-32
   10a76:	0007871b          	sext.w	a4,a5
   10a7a:	fae6fee3          	bgeu	a3,a4,10a36 <_vfprintf_r+0x14a>
   10a7e:	100d8463          	beqz	s11,10b86 <_vfprintf_r+0x29a>
   10a82:	13b10423          	sb	s11,296(sp)
   10a86:	0c010fa3          	sb	zero,223(sp)
   10a8a:	4985                	li	s3,1
   10a8c:	4c05                	li	s8,1
   10a8e:	12810c93          	addi	s9,sp,296
   10a92:	ec02                	sd	zero,24(sp)
   10a94:	4e81                	li	t4,0
   10a96:	e882                	sd	zero,80(sp)
   10a98:	f082                	sd	zero,96(sp)
   10a9a:	ec82                	sd	zero,88(sp)
   10a9c:	0024f793          	andi	a5,s1,2
   10aa0:	0007829b          	sext.w	t0,a5
   10aa4:	c391                	beqz	a5,10aa8 <_vfprintf_r+0x1bc>
   10aa6:	2989                	addiw	s3,s3,2
   10aa8:	0844ff93          	andi	t6,s1,132
   10aac:	7792                	ld	a5,288(sp)
   10aae:	000f9663          	bnez	t6,10aba <_vfprintf_r+0x1ce>
   10ab2:	413b06bb          	subw	a3,s6,s3
   10ab6:	2cd046e3          	bgtz	a3,11582 <_vfprintf_r+0xc96>
   10aba:	0df14703          	lbu	a4,223(sp)
   10abe:	c70d                	beqz	a4,10ae8 <_vfprintf_r+0x1fc>
   10ac0:	11812703          	lw	a4,280(sp)
   10ac4:	0df10693          	addi	a3,sp,223
   10ac8:	00d33023          	sd	a3,0(t1)
   10acc:	2705                	addiw	a4,a4,1
   10ace:	4685                	li	a3,1
   10ad0:	0785                	addi	a5,a5,1
   10ad2:	00d33423          	sd	a3,8(t1)
   10ad6:	10e12c23          	sw	a4,280(sp)
   10ada:	0007069b          	sext.w	a3,a4
   10ade:	f23e                	sd	a5,288(sp)
   10ae0:	471d                	li	a4,7
   10ae2:	0341                	addi	t1,t1,16
   10ae4:	42d74863          	blt	a4,a3,10f14 <_vfprintf_r+0x628>
   10ae8:	02028563          	beqz	t0,10b12 <_vfprintf_r+0x226>
   10aec:	11812703          	lw	a4,280(sp)
   10af0:	1194                	addi	a3,sp,224
   10af2:	00d33023          	sd	a3,0(t1)
   10af6:	2705                	addiw	a4,a4,1
   10af8:	4689                	li	a3,2
   10afa:	0789                	addi	a5,a5,2
   10afc:	00d33423          	sd	a3,8(t1)
   10b00:	10e12c23          	sw	a4,280(sp)
   10b04:	0007069b          	sext.w	a3,a4
   10b08:	f23e                	sd	a5,288(sp)
   10b0a:	471d                	li	a4,7
   10b0c:	0341                	addi	t1,t1,16
   10b0e:	30d74ce3          	blt	a4,a3,11626 <_vfprintf_r+0xd3a>
   10b12:	08000713          	li	a4,128
   10b16:	06ef81e3          	beq	t6,a4,11378 <_vfprintf_r+0xa8c>
   10b1a:	418e8ebb          	subw	t4,t4,s8
   10b1e:	0fd043e3          	bgtz	t4,11404 <_vfprintf_r+0xb18>
   10b22:	1004f713          	andi	a4,s1,256
   10b26:	78071663          	bnez	a4,112b2 <_vfprintf_r+0x9c6>
   10b2a:	11812703          	lw	a4,280(sp)
   10b2e:	97e2                	add	a5,a5,s8
   10b30:	01933023          	sd	s9,0(t1)
   10b34:	0017069b          	addiw	a3,a4,1
   10b38:	8736                	mv	a4,a3
   10b3a:	01833423          	sd	s8,8(t1)
   10b3e:	10e12c23          	sw	a4,280(sp)
   10b42:	f23e                	sd	a5,288(sp)
   10b44:	471d                	li	a4,7
   10b46:	44d74963          	blt	a4,a3,10f98 <_vfprintf_r+0x6ac>
   10b4a:	0341                	addi	t1,t1,16
   10b4c:	8891                	andi	s1,s1,4
   10b4e:	c489                	beqz	s1,10b58 <_vfprintf_r+0x26c>
   10b50:	413b04bb          	subw	s1,s6,s3
   10b54:	2e9048e3          	bgtz	s1,11644 <_vfprintf_r+0xd58>
   10b58:	875a                	mv	a4,s6
   10b5a:	013b5363          	bge	s6,s3,10b60 <_vfprintf_r+0x274>
   10b5e:	874e                	mv	a4,s3
   10b60:	6682                	ld	a3,0(sp)
   10b62:	9f35                	addw	a4,a4,a3
   10b64:	e03a                	sd	a4,0(sp)
   10b66:	10079ce3          	bnez	a5,1147e <_vfprintf_r+0xb92>
   10b6a:	67e2                	ld	a5,24(sp)
   10b6c:	10012c23          	sw	zero,280(sp)
   10b70:	c789                	beqz	a5,10b7a <_vfprintf_r+0x28e>
   10b72:	65e2                	ld	a1,24(sp)
   10b74:	8556                	mv	a0,s5
   10b76:	144020ef          	jal	ra,12cba <_free_r>
   10b7a:	835e                	mv	t1,s7
   10b7c:	8ca2                	mv	s9,s0
   10b7e:	000cc783          	lbu	a5,0(s9)
   10b82:	e2079ee3          	bnez	a5,109be <_vfprintf_r+0xd2>
   10b86:	7792                	ld	a5,288(sp)
   10b88:	c399                	beqz	a5,10b8e <_vfprintf_r+0x2a2>
   10b8a:	2de0106f          	j	11e68 <_vfprintf_r+0x157c>
   10b8e:	010a5783          	lhu	a5,16(s4)
   10b92:	0407f793          	andi	a5,a5,64
   10b96:	c399                	beqz	a5,10b9c <_vfprintf_r+0x2b0>
   10b98:	67c0106f          	j	12214 <_vfprintf_r+0x1928>
   10b9c:	27813083          	ld	ra,632(sp)
   10ba0:	27013403          	ld	s0,624(sp)
   10ba4:	6502                	ld	a0,0(sp)
   10ba6:	26813483          	ld	s1,616(sp)
   10baa:	26013903          	ld	s2,608(sp)
   10bae:	25813983          	ld	s3,600(sp)
   10bb2:	25013a03          	ld	s4,592(sp)
   10bb6:	24813a83          	ld	s5,584(sp)
   10bba:	24013b03          	ld	s6,576(sp)
   10bbe:	23813b83          	ld	s7,568(sp)
   10bc2:	23013c03          	ld	s8,560(sp)
   10bc6:	22813c83          	ld	s9,552(sp)
   10bca:	22013d03          	ld	s10,544(sp)
   10bce:	21813d83          	ld	s11,536(sp)
   10bd2:	28010113          	addi	sp,sp,640
   10bd6:	8082                	ret
   10bd8:	0104e493          	ori	s1,s1,16
   10bdc:	00044f03          	lbu	t5,0(s0)
   10be0:	2481                	sext.w	s1,s1
   10be2:	bd3d                	j	10a20 <_vfprintf_r+0x134>
   10be4:	85d2                	mv	a1,s4
   10be6:	8556                	mv	a0,s5
   10be8:	1c1010ef          	jal	ra,125a8 <__swsetup_r>
   10bec:	c119                	beqz	a0,10bf2 <_vfprintf_r+0x306>
   10bee:	6260106f          	j	12214 <_vfprintf_r+0x1928>
   10bf2:	010a5783          	lhu	a5,16(s4)
   10bf6:	4729                	li	a4,10
   10bf8:	8be9                	andi	a5,a5,26
   10bfa:	d8e79be3          	bne	a5,a4,10990 <_vfprintf_r+0xa4>
   10bfe:	012a1783          	lh	a5,18(s4)
   10c02:	d807c7e3          	bltz	a5,10990 <_vfprintf_r+0xa4>
   10c06:	66c2                	ld	a3,16(sp)
   10c08:	8666                	mv	a2,s9
   10c0a:	85d2                	mv	a1,s4
   10c0c:	8556                	mv	a0,s5
   10c0e:	107010ef          	jal	ra,12514 <__sbprintf>
   10c12:	e02a                	sd	a0,0(sp)
   10c14:	b761                	j	10b9c <_vfprintf_r+0x2b0>
   10c16:	0104e493          	ori	s1,s1,16
   10c1a:	2481                	sext.w	s1,s1
   10c1c:	66c2                	ld	a3,16(sp)
   10c1e:	0204f793          	andi	a5,s1,32
   10c22:	00868713          	addi	a4,a3,8
   10c26:	3a078263          	beqz	a5,10fca <_vfprintf_r+0x6de>
   10c2a:	629c                	ld	a5,0(a3)
   10c2c:	89be                	mv	s3,a5
   10c2e:	3a07cc63          	bltz	a5,10fe6 <_vfprintf_r+0x6fa>
   10c32:	57fd                	li	a5,-1
   10c34:	48fe87e3          	beq	t4,a5,118c2 <_vfprintf_r+0xfd6>
   10c38:	f7f4f493          	andi	s1,s1,-129
   10c3c:	e83a                	sd	a4,16(sp)
   10c3e:	0004881b          	sext.w	a6,s1
   10c42:	120993e3          	bnez	s3,11568 <_vfprintf_r+0xc7c>
   10c46:	120e94e3          	bnez	t4,1156e <_vfprintf_r+0xc82>
   10c4a:	84c2                	mv	s1,a6
   10c4c:	4e81                	li	t4,0
   10c4e:	4c01                	li	s8,0
   10c50:	18c10c93          	addi	s9,sp,396
   10c54:	000c099b          	sext.w	s3,s8
   10c58:	01dc5463          	bge	s8,t4,10c60 <_vfprintf_r+0x374>
   10c5c:	000e899b          	sext.w	s3,t4
   10c60:	0df14783          	lbu	a5,223(sp)
   10c64:	ec02                	sd	zero,24(sp)
   10c66:	e882                	sd	zero,80(sp)
   10c68:	f082                	sd	zero,96(sp)
   10c6a:	ec82                	sd	zero,88(sp)
   10c6c:	e20788e3          	beqz	a5,10a9c <_vfprintf_r+0x1b0>
   10c70:	2985                	addiw	s3,s3,1
   10c72:	b52d                	j	10a9c <_vfprintf_r+0x1b0>
   10c74:	0104e493          	ori	s1,s1,16
   10c78:	2481                	sext.w	s1,s1
   10c7a:	66c2                	ld	a3,16(sp)
   10c7c:	0204f793          	andi	a5,s1,32
   10c80:	00868713          	addi	a4,a3,8
   10c84:	32078463          	beqz	a5,10fac <_vfprintf_r+0x6c0>
   10c88:	0006b983          	ld	s3,0(a3)
   10c8c:	bff4f493          	andi	s1,s1,-1025
   10c90:	0004881b          	sext.w	a6,s1
   10c94:	e83a                	sd	a4,16(sp)
   10c96:	4781                	li	a5,0
   10c98:	0c010fa3          	sb	zero,223(sp)
   10c9c:	577d                	li	a4,-1
   10c9e:	36ee8063          	beq	t4,a4,10ffe <_vfprintf_r+0x712>
   10ca2:	f7f87493          	andi	s1,a6,-129
   10ca6:	2481                	sext.w	s1,s1
   10ca8:	0a099ce3          	bnez	s3,11560 <_vfprintf_r+0xc74>
   10cac:	5c0e9663          	bnez	t4,11278 <_vfprintf_r+0x98c>
   10cb0:	ffd1                	bnez	a5,10c4c <_vfprintf_r+0x360>
   10cb2:	00187c13          	andi	s8,a6,1
   10cb6:	18c10c93          	addi	s9,sp,396
   10cba:	f80c0de3          	beqz	s8,10c54 <_vfprintf_r+0x368>
   10cbe:	03000793          	li	a5,48
   10cc2:	18f105a3          	sb	a5,395(sp)
   10cc6:	18b10c93          	addi	s9,sp,395
   10cca:	b769                	j	10c54 <_vfprintf_r+0x368>
   10ccc:	419404bb          	subw	s1,s0,s9
   10cd0:	d00494e3          	bnez	s1,109d8 <_vfprintf_r+0xec>
   10cd4:	00044783          	lbu	a5,0(s0)
   10cd8:	b33d                	j	10a06 <_vfprintf_r+0x11a>
   10cda:	0a10                	addi	a2,sp,272
   10cdc:	85d2                	mv	a1,s4
   10cde:	8556                	mv	a0,s5
   10ce0:	1ca080ef          	jal	ra,18eaa <__sprint_r>
   10ce4:	ea0515e3          	bnez	a0,10b8e <_vfprintf_r+0x2a2>
   10ce8:	835e                	mv	t1,s7
   10cea:	bb09                	j	109fc <_vfprintf_r+0x110>
   10cec:	0084f793          	andi	a5,s1,8
   10cf0:	3a079ee3          	bnez	a5,118ac <_vfprintf_r+0xfc0>
   10cf4:	67c2                	ld	a5,16(sp)
   10cf6:	ec1a                	sd	t1,24(sp)
   10cf8:	e476                	sd	t4,8(sp)
   10cfa:	2388                	fld	fa0,0(a5)
   10cfc:	00878693          	addi	a3,a5,8 # 2008 <register_fini-0xe0a8>
   10d00:	e836                	sd	a3,16(sp)
   10d02:	5040b0ef          	jal	ra,1c206 <__extenddftf2>
   10d06:	6362                	ld	t1,24(sp)
   10d08:	6ea2                	ld	t4,8(sp)
   10d0a:	e22a                	sd	a0,256(sp)
   10d0c:	e62e                	sd	a1,264(sp)
   10d0e:	0208                	addi	a0,sp,256
   10d10:	ec1a                	sd	t1,24(sp)
   10d12:	e476                	sd	t4,8(sp)
   10d14:	6a0040ef          	jal	ra,153b4 <_ldcheck>
   10d18:	d5aa                	sw	a0,232(sp)
   10d1a:	4789                	li	a5,2
   10d1c:	6ea2                	ld	t4,8(sp)
   10d1e:	6362                	ld	t1,24(sp)
   10d20:	64f502e3          	beq	a0,a5,11b64 <_vfprintf_r+0x1278>
   10d24:	4785                	li	a5,1
   10d26:	6ef50ee3          	beq	a0,a5,11c22 <_vfprintf_r+0x1336>
   10d2a:	06100793          	li	a5,97
   10d2e:	00fd9463          	bne	s11,a5,10d36 <_vfprintf_r+0x44a>
   10d32:	5740106f          	j	122a6 <_vfprintf_r+0x19ba>
   10d36:	04100793          	li	a5,65
   10d3a:	00fd9463          	bne	s11,a5,10d42 <_vfprintf_r+0x456>
   10d3e:	1380106f          	j	11e76 <_vfprintf_r+0x158a>
   10d42:	fdfdf713          	andi	a4,s11,-33
   10d46:	57fd                	li	a5,-1
   10d48:	f0ba                	sd	a4,96(sp)
   10d4a:	00fe9463          	bne	t4,a5,10d52 <_vfprintf_r+0x466>
   10d4e:	6140106f          	j	12362 <_vfprintf_r+0x1a76>
   10d52:	04700793          	li	a5,71
   10d56:	00f71463          	bne	a4,a5,10d5e <_vfprintf_r+0x472>
   10d5a:	5c40106f          	j	1231e <_vfprintf_r+0x1a32>
   10d5e:	69b2                	ld	s3,264(sp)
   10d60:	1004e793          	ori	a5,s1,256
   10d64:	ed26                	sd	s1,152(sp)
   10d66:	6c12                	ld	s8,256(sp)
   10d68:	2781                	sext.w	a5,a5
   10d6a:	0009d463          	bgez	s3,10d72 <_vfprintf_r+0x486>
   10d6e:	67a0106f          	j	123e8 <_vfprintf_r+0x1afc>
   10d72:	e582                	sd	zero,200(sp)
   10d74:	84be                	mv	s1,a5
   10d76:	ec02                	sd	zero,24(sp)
   10d78:	2701                	sext.w	a4,a4
   10d7a:	04600793          	li	a5,70
   10d7e:	00f71463          	bne	a4,a5,10d86 <_vfprintf_r+0x49a>
   10d82:	38a0106f          	j	1210c <_vfprintf_r+0x1820>
   10d86:	7706                	ld	a4,96(sp)
   10d88:	04500793          	li	a5,69
   10d8c:	00f70463          	beq	a4,a5,10d94 <_vfprintf_r+0x4a8>
   10d90:	33c0106f          	j	120cc <_vfprintf_r+0x17e0>
   10d94:	001e871b          	addiw	a4,t4,1
   10d98:	0f810893          	addi	a7,sp,248
   10d9c:	0ec10813          	addi	a6,sp,236
   10da0:	11bc                	addi	a5,sp,232
   10da2:	4689                	li	a3,2
   10da4:	85e2                	mv	a1,s8
   10da6:	864e                	mv	a2,s3
   10da8:	8556                	mv	a0,s5
   10daa:	f81a                	sd	t1,48(sp)
   10dac:	f076                	sd	t4,32(sp)
   10dae:	e43a                	sd	a4,8(sp)
   10db0:	78c030ef          	jal	ra,1453c <_ldtoa_r>
   10db4:	6722                	ld	a4,8(sp)
   10db6:	7e82                	ld	t4,32(sp)
   10db8:	7342                	ld	t1,48(sp)
   10dba:	8caa                	mv	s9,a0
   10dbc:	00e508b3          	add	a7,a0,a4
   10dc0:	4601                	li	a2,0
   10dc2:	4681                	li	a3,0
   10dc4:	8562                	mv	a0,s8
   10dc6:	85ce                	mv	a1,s3
   10dc8:	f846                	sd	a7,48(sp)
   10dca:	f01a                	sd	t1,32(sp)
   10dcc:	e476                	sd	t4,8(sp)
   10dce:	3540a0ef          	jal	ra,1b122 <__eqtf2>
   10dd2:	78c2                	ld	a7,48(sp)
   10dd4:	6ea2                	ld	t4,8(sp)
   10dd6:	7302                	ld	t1,32(sp)
   10dd8:	87c6                	mv	a5,a7
   10dda:	cd11                	beqz	a0,10df6 <_vfprintf_r+0x50a>
   10ddc:	77ee                	ld	a5,248(sp)
   10dde:	0117fc63          	bgeu	a5,a7,10df6 <_vfprintf_r+0x50a>
   10de2:	03000693          	li	a3,48
   10de6:	00178713          	addi	a4,a5,1
   10dea:	fdba                	sd	a4,248(sp)
   10dec:	00d78023          	sb	a3,0(a5)
   10df0:	77ee                	ld	a5,248(sp)
   10df2:	ff17eae3          	bltu	a5,a7,10de6 <_vfprintf_r+0x4fa>
   10df6:	419787bb          	subw	a5,a5,s9
   10dfa:	f03e                	sd	a5,32(sp)
   10dfc:	572e                	lw	a4,232(sp)
   10dfe:	04700793          	li	a5,71
   10e02:	ecba                	sd	a4,88(sp)
   10e04:	7706                	ld	a4,96(sp)
   10e06:	00f71463          	bne	a4,a5,10e0e <_vfprintf_r+0x522>
   10e0a:	2200106f          	j	1202a <_vfprintf_r+0x173e>
   10e0e:	7706                	ld	a4,96(sp)
   10e10:	04600793          	li	a5,70
   10e14:	00f71463          	bne	a4,a5,10e1c <_vfprintf_r+0x530>
   10e18:	3c40106f          	j	121dc <_vfprintf_r+0x18f0>
   10e1c:	67e6                	ld	a5,88(sp)
   10e1e:	7586                	ld	a1,96(sp)
   10e20:	04100613          	li	a2,65
   10e24:	37fd                	addiw	a5,a5,-1
   10e26:	d5be                	sw	a5,232(sp)
   10e28:	0ffdf713          	andi	a4,s11,255
   10e2c:	4681                	li	a3,0
   10e2e:	00c59663          	bne	a1,a2,10e3a <_vfprintf_r+0x54e>
   10e32:	273d                	addiw	a4,a4,15
   10e34:	0ff77713          	andi	a4,a4,255
   10e38:	4685                	li	a3,1
   10e3a:	0ee10823          	sb	a4,240(sp)
   10e3e:	02b00713          	li	a4,43
   10e42:	0007d763          	bgez	a5,10e50 <_vfprintf_r+0x564>
   10e46:	6766                	ld	a4,88(sp)
   10e48:	4785                	li	a5,1
   10e4a:	9f99                	subw	a5,a5,a4
   10e4c:	02d00713          	li	a4,45
   10e50:	0ee108a3          	sb	a4,241(sp)
   10e54:	4725                	li	a4,9
   10e56:	00f74463          	blt	a4,a5,10e5e <_vfprintf_r+0x572>
   10e5a:	5e00106f          	j	1243a <_vfprintf_r+0x1b4e>
   10e5e:	0ff10513          	addi	a0,sp,255
   10e62:	85aa                	mv	a1,a0
   10e64:	46a9                	li	a3,10
   10e66:	06300e93          	li	t4,99
   10e6a:	02d7e73b          	remw	a4,a5,a3
   10e6e:	862e                	mv	a2,a1
   10e70:	88be                	mv	a7,a5
   10e72:	15fd                	addi	a1,a1,-1
   10e74:	0307071b          	addiw	a4,a4,48
   10e78:	fee60fa3          	sb	a4,-1(a2)
   10e7c:	02d7c7bb          	divw	a5,a5,a3
   10e80:	ff1ec5e3          	blt	t4,a7,10e6a <_vfprintf_r+0x57e>
   10e84:	0307879b          	addiw	a5,a5,48
   10e88:	0ff7f693          	andi	a3,a5,255
   10e8c:	fed58fa3          	sb	a3,-1(a1)
   10e90:	ffe60793          	addi	a5,a2,-2
   10e94:	00a7e463          	bltu	a5,a0,10e9c <_vfprintf_r+0x5b0>
   10e98:	6560106f          	j	124ee <_vfprintf_r+0x1c02>
   10e9c:	0f210713          	addi	a4,sp,242
   10ea0:	a019                	j	10ea6 <_vfprintf_r+0x5ba>
   10ea2:	0007c683          	lbu	a3,0(a5)
   10ea6:	00d70023          	sb	a3,0(a4)
   10eaa:	0785                	addi	a5,a5,1
   10eac:	0705                	addi	a4,a4,1
   10eae:	fea79ae3          	bne	a5,a0,10ea2 <_vfprintf_r+0x5b6>
   10eb2:	10110793          	addi	a5,sp,257
   10eb6:	0f210713          	addi	a4,sp,242
   10eba:	8f91                	sub	a5,a5,a2
   10ebc:	97ba                	add	a5,a5,a4
   10ebe:	1998                	addi	a4,sp,240
   10ec0:	9f99                	subw	a5,a5,a4
   10ec2:	e13e                	sd	a5,128(sp)
   10ec4:	678a                	ld	a5,128(sp)
   10ec6:	7682                	ld	a3,32(sp)
   10ec8:	4705                	li	a4,1
   10eca:	00f68c3b          	addw	s8,a3,a5
   10ece:	87e2                	mv	a5,s8
   10ed0:	00d74463          	blt	a4,a3,10ed8 <_vfprintf_r+0x5ec>
   10ed4:	5a00106f          	j	12474 <_vfprintf_r+0x1b88>
   10ed8:	7746                	ld	a4,112(sp)
   10eda:	00e78c3b          	addw	s8,a5,a4
   10ede:	67ea                	ld	a5,152(sp)
   10ee0:	fffc4993          	not	s3,s8
   10ee4:	43f9d993          	srai	s3,s3,0x3f
   10ee8:	bff7f493          	andi	s1,a5,-1025
   10eec:	2481                	sext.w	s1,s1
   10eee:	013c79b3          	and	s3,s8,s3
   10ef2:	1004e493          	ori	s1,s1,256
   10ef6:	2981                	sext.w	s3,s3
   10ef8:	e882                	sd	zero,80(sp)
   10efa:	f082                	sd	zero,96(sp)
   10efc:	ec82                	sd	zero,88(sp)
   10efe:	67ae                	ld	a5,200(sp)
   10f00:	e399                	bnez	a5,10f06 <_vfprintf_r+0x61a>
   10f02:	17e0106f          	j	12080 <_vfprintf_r+0x1794>
   10f06:	02d00793          	li	a5,45
   10f0a:	0cf10fa3          	sb	a5,223(sp)
   10f0e:	4e81                	li	t4,0
   10f10:	2985                	addiw	s3,s3,1
   10f12:	b669                	j	10a9c <_vfprintf_r+0x1b0>
   10f14:	0a10                	addi	a2,sp,272
   10f16:	85d2                	mv	a1,s4
   10f18:	8556                	mv	a0,s5
   10f1a:	fc76                	sd	t4,56(sp)
   10f1c:	f87e                	sd	t6,48(sp)
   10f1e:	e416                	sd	t0,8(sp)
   10f20:	78b070ef          	jal	ra,18eaa <__sprint_r>
   10f24:	56051463          	bnez	a0,1148c <_vfprintf_r+0xba0>
   10f28:	7792                	ld	a5,288(sp)
   10f2a:	7ee2                	ld	t4,56(sp)
   10f2c:	7fc2                	ld	t6,48(sp)
   10f2e:	62a2                	ld	t0,8(sp)
   10f30:	835e                	mv	t1,s7
   10f32:	be5d                	j	10ae8 <_vfprintf_r+0x1fc>
   10f34:	76e6                	ld	a3,120(sp)
   10f36:	7746                	ld	a4,112(sp)
   10f38:	0341                	addi	t1,t1,16
   10f3a:	fed33823          	sd	a3,-16(t1)
   10f3e:	11812683          	lw	a3,280(sp)
   10f42:	97ba                	add	a5,a5,a4
   10f44:	fee33c23          	sd	a4,-8(t1)
   10f48:	2685                	addiw	a3,a3,1
   10f4a:	0006871b          	sext.w	a4,a3
   10f4e:	10d12c23          	sw	a3,280(sp)
   10f52:	f23e                	sd	a5,288(sp)
   10f54:	469d                	li	a3,7
   10f56:	00e6de63          	bge	a3,a4,10f72 <_vfprintf_r+0x686>
   10f5a:	0a10                	addi	a2,sp,272
   10f5c:	85d2                	mv	a1,s4
   10f5e:	8556                	mv	a0,s5
   10f60:	74b070ef          	jal	ra,18eaa <__sprint_r>
   10f64:	52051463          	bnez	a0,1148c <_vfprintf_r+0xba0>
   10f68:	562e                	lw	a2,232(sp)
   10f6a:	7792                	ld	a5,288(sp)
   10f6c:	11812703          	lw	a4,280(sp)
   10f70:	835e                	mv	t1,s7
   10f72:	00065463          	bgez	a2,10f7a <_vfprintf_r+0x68e>
   10f76:	2a60106f          	j	1221c <_vfprintf_r+0x1930>
   10f7a:	7682                	ld	a3,32(sp)
   10f7c:	2705                	addiw	a4,a4,1
   10f7e:	10e12c23          	sw	a4,280(sp)
   10f82:	97b6                	add	a5,a5,a3
   10f84:	00d33423          	sd	a3,8(t1)
   10f88:	01933023          	sd	s9,0(t1)
   10f8c:	0007069b          	sext.w	a3,a4
   10f90:	f23e                	sd	a5,288(sp)
   10f92:	471d                	li	a4,7
   10f94:	bad75be3          	bge	a4,a3,10b4a <_vfprintf_r+0x25e>
   10f98:	0a10                	addi	a2,sp,272
   10f9a:	85d2                	mv	a1,s4
   10f9c:	8556                	mv	a0,s5
   10f9e:	70d070ef          	jal	ra,18eaa <__sprint_r>
   10fa2:	4e051563          	bnez	a0,1148c <_vfprintf_r+0xba0>
   10fa6:	7792                	ld	a5,288(sp)
   10fa8:	835e                	mv	t1,s7
   10faa:	b64d                	j	10b4c <_vfprintf_r+0x260>
   10fac:	0104f793          	andi	a5,s1,16
   10fb0:	0e0799e3          	bnez	a5,118a2 <_vfprintf_r+0xfb6>
   10fb4:	66c2                	ld	a3,16(sp)
   10fb6:	0404f793          	andi	a5,s1,64
   10fba:	0006a983          	lw	s3,0(a3)
   10fbe:	44078ae3          	beqz	a5,11c12 <_vfprintf_r+0x1326>
   10fc2:	19c2                	slli	s3,s3,0x30
   10fc4:	0309d993          	srli	s3,s3,0x30
   10fc8:	b1d1                	j	10c8c <_vfprintf_r+0x3a0>
   10fca:	0104f793          	andi	a5,s1,16
   10fce:	0c0795e3          	bnez	a5,11898 <_vfprintf_r+0xfac>
   10fd2:	0404f793          	andi	a5,s1,64
   10fd6:	40078de3          	beqz	a5,11bf0 <_vfprintf_r+0x1304>
   10fda:	67c2                	ld	a5,16(sp)
   10fdc:	00079983          	lh	s3,0(a5)
   10fe0:	87ce                	mv	a5,s3
   10fe2:	c407d8e3          	bgez	a5,10c32 <_vfprintf_r+0x346>
   10fe6:	02d00793          	li	a5,45
   10fea:	0cf10fa3          	sb	a5,223(sp)
   10fee:	e83a                	sd	a4,16(sp)
   10ff0:	577d                	li	a4,-1
   10ff2:	413009b3          	neg	s3,s3
   10ff6:	8826                	mv	a6,s1
   10ff8:	4785                	li	a5,1
   10ffa:	caee94e3          	bne	t4,a4,10ca2 <_vfprintf_r+0x3b6>
   10ffe:	4705                	li	a4,1
   11000:	56e78463          	beq	a5,a4,11568 <_vfprintf_r+0xc7c>
   11004:	4709                	li	a4,2
   11006:	28e78263          	beq	a5,a4,1128a <_vfprintf_r+0x99e>
   1100a:	18c10c13          	addi	s8,sp,396
   1100e:	8ce2                	mv	s9,s8
   11010:	0079f793          	andi	a5,s3,7
   11014:	03078793          	addi	a5,a5,48
   11018:	fefc8fa3          	sb	a5,-1(s9)
   1101c:	0039d993          	srli	s3,s3,0x3
   11020:	8766                	mv	a4,s9
   11022:	1cfd                	addi	s9,s9,-1
   11024:	fe0996e3          	bnez	s3,11010 <_vfprintf_r+0x724>
   11028:	00187693          	andi	a3,a6,1
   1102c:	26068f63          	beqz	a3,112aa <_vfprintf_r+0x9be>
   11030:	03000693          	li	a3,48
   11034:	26d78b63          	beq	a5,a3,112aa <_vfprintf_r+0x9be>
   11038:	1779                	addi	a4,a4,-2
   1103a:	fedc8fa3          	sb	a3,-1(s9)
   1103e:	40ec0c3b          	subw	s8,s8,a4
   11042:	84c2                	mv	s1,a6
   11044:	8cba                	mv	s9,a4
   11046:	b139                	j	10c54 <_vfprintf_r+0x368>
   11048:	8556                	mv	a0,s5
   1104a:	33f010ef          	jal	ra,12b88 <__sinit>
   1104e:	b8fd                	j	1094c <_vfprintf_r+0x60>
   11050:	67c2                	ld	a5,16(sp)
   11052:	0c010fa3          	sb	zero,223(sp)
   11056:	0007bc83          	ld	s9,0(a5)
   1105a:	00878693          	addi	a3,a5,8
   1105e:	1c0c85e3          	beqz	s9,11a28 <_vfprintf_r+0x113c>
   11062:	57fd                	li	a5,-1
   11064:	34fe82e3          	beq	t4,a5,11ba8 <_vfprintf_r+0x12bc>
   11068:	8676                	mv	a2,t4
   1106a:	4581                	li	a1,0
   1106c:	8566                	mv	a0,s9
   1106e:	f836                	sd	a3,48(sp)
   11070:	e81a                	sd	t1,16(sp)
   11072:	e476                	sd	t4,8(sp)
   11074:	3ab040ef          	jal	ra,15c1e <memchr>
   11078:	ec2a                	sd	a0,24(sp)
   1107a:	6ea2                	ld	t4,8(sp)
   1107c:	6342                	ld	t1,16(sp)
   1107e:	76c2                	ld	a3,48(sp)
   11080:	e119                	bnez	a0,11086 <_vfprintf_r+0x79a>
   11082:	1120106f          	j	12194 <_vfprintf_r+0x18a8>
   11086:	67e2                	ld	a5,24(sp)
   11088:	e836                	sd	a3,16(sp)
   1108a:	ec02                	sd	zero,24(sp)
   1108c:	41978c3b          	subw	s8,a5,s9
   11090:	fffc4993          	not	s3,s8
   11094:	0df14783          	lbu	a5,223(sp)
   11098:	43f9d993          	srai	s3,s3,0x3f
   1109c:	013c79b3          	and	s3,s8,s3
   110a0:	e882                	sd	zero,80(sp)
   110a2:	f082                	sd	zero,96(sp)
   110a4:	ec82                	sd	zero,88(sp)
   110a6:	2981                	sext.w	s3,s3
   110a8:	4e81                	li	t4,0
   110aa:	bc0793e3          	bnez	a5,10c70 <_vfprintf_r+0x384>
   110ae:	b2fd                	j	10a9c <_vfprintf_r+0x1b0>
   110b0:	6742                	ld	a4,16(sp)
   110b2:	0c010fa3          	sb	zero,223(sp)
   110b6:	4985                	li	s3,1
   110b8:	431c                	lw	a5,0(a4)
   110ba:	0721                	addi	a4,a4,8
   110bc:	e83a                	sd	a4,16(sp)
   110be:	12f10423          	sb	a5,296(sp)
   110c2:	4c05                	li	s8,1
   110c4:	12810c93          	addi	s9,sp,296
   110c8:	b2e9                	j	10a92 <_vfprintf_r+0x1a6>
   110ca:	00044f03          	lbu	t5,0(s0)
   110ce:	0044e493          	ori	s1,s1,4
   110d2:	2481                	sext.w	s1,s1
   110d4:	b2b1                	j	10a20 <_vfprintf_r+0x134>
   110d6:	02b00793          	li	a5,43
   110da:	00044f03          	lbu	t5,0(s0)
   110de:	0cf10fa3          	sb	a5,223(sp)
   110e2:	ba3d                	j	10a20 <_vfprintf_r+0x134>
   110e4:	0804e493          	ori	s1,s1,128
   110e8:	00044f03          	lbu	t5,0(s0)
   110ec:	2481                	sext.w	s1,s1
   110ee:	ba0d                	j	10a20 <_vfprintf_r+0x134>
   110f0:	00044703          	lbu	a4,0(s0)
   110f4:	00140793          	addi	a5,s0,1
   110f8:	00070d9b          	sext.w	s11,a4
   110fc:	00ec1463          	bne	s8,a4,11104 <_vfprintf_r+0x818>
   11100:	3d20106f          	j	124d2 <_vfprintf_r+0x1be6>
   11104:	fd07071b          	addiw	a4,a4,-48
   11108:	843e                	mv	s0,a5
   1110a:	4e81                	li	t4,0
   1110c:	90e9efe3          	bltu	s3,a4,10a2a <_vfprintf_r+0x13e>
   11110:	00044d83          	lbu	s11,0(s0)
   11114:	002e979b          	slliw	a5,t4,0x2
   11118:	01d78ebb          	addw	t4,a5,t4
   1111c:	001e9e9b          	slliw	t4,t4,0x1
   11120:	00ee8ebb          	addw	t4,t4,a4
   11124:	fd0d871b          	addiw	a4,s11,-48
   11128:	0405                	addi	s0,s0,1
   1112a:	fee9f3e3          	bgeu	s3,a4,11110 <_vfprintf_r+0x824>
   1112e:	b8f5                	j	10a2a <_vfprintf_r+0x13e>
   11130:	67c2                	ld	a5,16(sp)
   11132:	00044f03          	lbu	t5,0(s0)
   11136:	0007ab03          	lw	s6,0(a5)
   1113a:	07a1                	addi	a5,a5,8
   1113c:	e83e                	sd	a5,16(sp)
   1113e:	8e0b51e3          	bgez	s6,10a20 <_vfprintf_r+0x134>
   11142:	41600b3b          	negw	s6,s6
   11146:	b761                	j	110ce <_vfprintf_r+0x7e2>
   11148:	8556                	mv	a0,s5
   1114a:	ec1a                	sd	t1,24(sp)
   1114c:	e476                	sd	t4,8(sp)
   1114e:	2a2040ef          	jal	ra,153f0 <_localeconv_r>
   11152:	651c                	ld	a5,8(a0)
   11154:	853e                	mv	a0,a5
   11156:	e93e                	sd	a5,144(sp)
   11158:	f00ff0ef          	jal	ra,10858 <strlen>
   1115c:	87aa                	mv	a5,a0
   1115e:	8556                	mv	a0,s5
   11160:	8dbe                	mv	s11,a5
   11162:	e53e                	sd	a5,136(sp)
   11164:	28c040ef          	jal	ra,153f0 <_localeconv_r>
   11168:	6918                	ld	a4,16(a0)
   1116a:	6ea2                	ld	t4,8(sp)
   1116c:	6362                	ld	t1,24(sp)
   1116e:	f4ba                	sd	a4,104(sp)
   11170:	00044f03          	lbu	t5,0(s0)
   11174:	8a0d86e3          	beqz	s11,10a20 <_vfprintf_r+0x134>
   11178:	8a0704e3          	beqz	a4,10a20 <_vfprintf_r+0x134>
   1117c:	00074783          	lbu	a5,0(a4)
   11180:	8a0780e3          	beqz	a5,10a20 <_vfprintf_r+0x134>
   11184:	4004e493          	ori	s1,s1,1024
   11188:	2481                	sext.w	s1,s1
   1118a:	b859                	j	10a20 <_vfprintf_r+0x134>
   1118c:	0014e493          	ori	s1,s1,1
   11190:	00044f03          	lbu	t5,0(s0)
   11194:	2481                	sext.w	s1,s1
   11196:	b069                	j	10a20 <_vfprintf_r+0x134>
   11198:	0df14783          	lbu	a5,223(sp)
   1119c:	00044f03          	lbu	t5,0(s0)
   111a0:	880790e3          	bnez	a5,10a20 <_vfprintf_r+0x134>
   111a4:	02000793          	li	a5,32
   111a8:	0cf10fa3          	sb	a5,223(sp)
   111ac:	b895                	j	10a20 <_vfprintf_r+0x134>
   111ae:	0084e493          	ori	s1,s1,8
   111b2:	00044f03          	lbu	t5,0(s0)
   111b6:	2481                	sext.w	s1,s1
   111b8:	b0a5                	j	10a20 <_vfprintf_r+0x134>
   111ba:	0104e493          	ori	s1,s1,16
   111be:	0004881b          	sext.w	a6,s1
   111c2:	66c2                	ld	a3,16(sp)
   111c4:	02087793          	andi	a5,a6,32
   111c8:	00868713          	addi	a4,a3,8
   111cc:	68078463          	beqz	a5,11854 <_vfprintf_r+0xf68>
   111d0:	0006b983          	ld	s3,0(a3)
   111d4:	4785                	li	a5,1
   111d6:	e83a                	sd	a4,16(sp)
   111d8:	b4c1                	j	10c98 <_vfprintf_r+0x3ac>
   111da:	0204e493          	ori	s1,s1,32
   111de:	00044f03          	lbu	t5,0(s0)
   111e2:	2481                	sext.w	s1,s1
   111e4:	83dff06f          	j	10a20 <_vfprintf_r+0x134>
   111e8:	6742                	ld	a4,16(sp)
   111ea:	77e1                	lui	a5,0xffff8
   111ec:	8307c793          	xori	a5,a5,-2000
   111f0:	0ef11023          	sh	a5,224(sp)
   111f4:	00870793          	addi	a5,a4,8
   111f8:	0024e493          	ori	s1,s1,2
   111fc:	e83e                	sd	a5,16(sp)
   111fe:	0000b797          	auipc	a5,0xb
   11202:	4a278793          	addi	a5,a5,1186 # 1c6a0 <__clzdi2+0x1a8>
   11206:	f43e                	sd	a5,40(sp)
   11208:	00073983          	ld	s3,0(a4)
   1120c:	0004881b          	sext.w	a6,s1
   11210:	4789                	li	a5,2
   11212:	07800d93          	li	s11,120
   11216:	b449                	j	10c98 <_vfprintf_r+0x3ac>
   11218:	66c2                	ld	a3,16(sp)
   1121a:	0204f793          	andi	a5,s1,32
   1121e:	6298                	ld	a4,0(a3)
   11220:	06a1                	addi	a3,a3,8
   11222:	e836                	sd	a3,16(sp)
   11224:	64079e63          	bnez	a5,11880 <_vfprintf_r+0xf94>
   11228:	0104f793          	andi	a5,s1,16
   1122c:	64079a63          	bnez	a5,11880 <_vfprintf_r+0xf94>
   11230:	0404f793          	andi	a5,s1,64
   11234:	3e0799e3          	bnez	a5,11e26 <_vfprintf_r+0x153a>
   11238:	2004f493          	andi	s1,s1,512
   1123c:	6782                	ld	a5,0(sp)
   1123e:	e099                	bnez	s1,11244 <_vfprintf_r+0x958>
   11240:	1280106f          	j	12368 <_vfprintf_r+0x1a7c>
   11244:	00f70023          	sb	a5,0(a4)
   11248:	8ca2                	mv	s9,s0
   1124a:	ba15                	j	10b7e <_vfprintf_r+0x292>
   1124c:	00044f03          	lbu	t5,0(s0)
   11250:	06c00793          	li	a5,108
   11254:	7aff0263          	beq	t5,a5,119f8 <_vfprintf_r+0x110c>
   11258:	0104e493          	ori	s1,s1,16
   1125c:	2481                	sext.w	s1,s1
   1125e:	fc2ff06f          	j	10a20 <_vfprintf_r+0x134>
   11262:	00044f03          	lbu	t5,0(s0)
   11266:	06800793          	li	a5,104
   1126a:	76ff0f63          	beq	t5,a5,119e8 <_vfprintf_r+0x10fc>
   1126e:	0404e493          	ori	s1,s1,64
   11272:	2481                	sext.w	s1,s1
   11274:	facff06f          	j	10a20 <_vfprintf_r+0x134>
   11278:	4705                	li	a4,1
   1127a:	00e79463          	bne	a5,a4,11282 <_vfprintf_r+0x996>
   1127e:	0220106f          	j	122a0 <_vfprintf_r+0x19b4>
   11282:	4709                	li	a4,2
   11284:	8826                	mv	a6,s1
   11286:	d8e792e3          	bne	a5,a4,1100a <_vfprintf_r+0x71e>
   1128a:	18c10c13          	addi	s8,sp,396
   1128e:	8ce2                	mv	s9,s8
   11290:	7722                	ld	a4,40(sp)
   11292:	00f9f793          	andi	a5,s3,15
   11296:	1cfd                	addi	s9,s9,-1
   11298:	97ba                	add	a5,a5,a4
   1129a:	0007c783          	lbu	a5,0(a5)
   1129e:	0049d993          	srli	s3,s3,0x4
   112a2:	00fc8023          	sb	a5,0(s9)
   112a6:	fe0995e3          	bnez	s3,11290 <_vfprintf_r+0x9a4>
   112aa:	419c0c3b          	subw	s8,s8,s9
   112ae:	84c2                	mv	s1,a6
   112b0:	b255                	j	10c54 <_vfprintf_r+0x368>
   112b2:	06500713          	li	a4,101
   112b6:	1fb75463          	bge	a4,s11,1149e <_vfprintf_r+0xbb2>
   112ba:	6512                	ld	a0,256(sp)
   112bc:	65b2                	ld	a1,264(sp)
   112be:	4601                	li	a2,0
   112c0:	4681                	li	a3,0
   112c2:	f83e                	sd	a5,48(sp)
   112c4:	e41a                	sd	t1,8(sp)
   112c6:	65d090ef          	jal	ra,1b122 <__eqtf2>
   112ca:	6322                	ld	t1,8(sp)
   112cc:	77c2                	ld	a5,48(sp)
   112ce:	3e051b63          	bnez	a0,116c4 <_vfprintf_r+0xdd8>
   112d2:	11812703          	lw	a4,280(sp)
   112d6:	0000b697          	auipc	a3,0xb
   112da:	3ea68693          	addi	a3,a3,1002 # 1c6c0 <__clzdi2+0x1c8>
   112de:	00d33023          	sd	a3,0(t1)
   112e2:	2705                	addiw	a4,a4,1
   112e4:	4685                	li	a3,1
   112e6:	0785                	addi	a5,a5,1
   112e8:	00d33423          	sd	a3,8(t1)
   112ec:	10e12c23          	sw	a4,280(sp)
   112f0:	0007069b          	sext.w	a3,a4
   112f4:	f23e                	sd	a5,288(sp)
   112f6:	471d                	li	a4,7
   112f8:	0341                	addi	t1,t1,16
   112fa:	04d742e3          	blt	a4,a3,11b3e <_vfprintf_r+0x1252>
   112fe:	572e                	lw	a4,232(sp)
   11300:	7682                	ld	a3,32(sp)
   11302:	56d75a63          	bge	a4,a3,11876 <_vfprintf_r+0xf8a>
   11306:	7766                	ld	a4,120(sp)
   11308:	76c6                	ld	a3,112(sp)
   1130a:	0341                	addi	t1,t1,16
   1130c:	fee33823          	sd	a4,-16(t1)
   11310:	11812703          	lw	a4,280(sp)
   11314:	97b6                	add	a5,a5,a3
   11316:	fed33c23          	sd	a3,-8(t1)
   1131a:	2705                	addiw	a4,a4,1
   1131c:	0007069b          	sext.w	a3,a4
   11320:	10e12c23          	sw	a4,280(sp)
   11324:	f23e                	sd	a5,288(sp)
   11326:	471d                	li	a4,7
   11328:	6ed74063          	blt	a4,a3,11a08 <_vfprintf_r+0x111c>
   1132c:	7702                	ld	a4,32(sp)
   1132e:	fff70c1b          	addiw	s8,a4,-1
   11332:	81805de3          	blez	s8,10b4c <_vfprintf_r+0x260>
   11336:	11812703          	lw	a4,280(sp)
   1133a:	018d5de3          	bge	s10,s8,11b54 <_vfprintf_r+0x1268>
   1133e:	4c9d                	li	s9,7
   11340:	a021                	j	11348 <_vfprintf_r+0xa5c>
   11342:	3c41                	addiw	s8,s8,-16
   11344:	018d58e3          	bge	s10,s8,11b54 <_vfprintf_r+0x1268>
   11348:	2705                	addiw	a4,a4,1
   1134a:	07c1                	addi	a5,a5,16
   1134c:	01233023          	sd	s2,0(t1)
   11350:	01a33423          	sd	s10,8(t1)
   11354:	f23e                	sd	a5,288(sp)
   11356:	10e12c23          	sw	a4,280(sp)
   1135a:	0341                	addi	t1,t1,16
   1135c:	feecd3e3          	bge	s9,a4,11342 <_vfprintf_r+0xa56>
   11360:	0a10                	addi	a2,sp,272
   11362:	85d2                	mv	a1,s4
   11364:	8556                	mv	a0,s5
   11366:	345070ef          	jal	ra,18eaa <__sprint_r>
   1136a:	12051163          	bnez	a0,1148c <_vfprintf_r+0xba0>
   1136e:	7792                	ld	a5,288(sp)
   11370:	11812703          	lw	a4,280(sp)
   11374:	835e                	mv	t1,s7
   11376:	b7f1                	j	11342 <_vfprintf_r+0xa56>
   11378:	413b06bb          	subw	a3,s6,s3
   1137c:	f8d05f63          	blez	a3,10b1a <_vfprintf_r+0x22e>
   11380:	11812703          	lw	a4,280(sp)
   11384:	04dd5563          	bge	s10,a3,113ce <_vfprintf_r+0xae2>
   11388:	489d                	li	a7,7
   1138a:	a021                	j	11392 <_vfprintf_r+0xaa6>
   1138c:	36c1                	addiw	a3,a3,-16
   1138e:	04dd5063          	bge	s10,a3,113ce <_vfprintf_r+0xae2>
   11392:	2705                	addiw	a4,a4,1
   11394:	07c1                	addi	a5,a5,16
   11396:	01233023          	sd	s2,0(t1)
   1139a:	01a33423          	sd	s10,8(t1)
   1139e:	f23e                	sd	a5,288(sp)
   113a0:	10e12c23          	sw	a4,280(sp)
   113a4:	0341                	addi	t1,t1,16
   113a6:	fee8d3e3          	bge	a7,a4,1138c <_vfprintf_r+0xaa0>
   113aa:	0a10                	addi	a2,sp,272
   113ac:	85d2                	mv	a1,s4
   113ae:	8556                	mv	a0,s5
   113b0:	f836                	sd	a3,48(sp)
   113b2:	e476                	sd	t4,8(sp)
   113b4:	2f7070ef          	jal	ra,18eaa <__sprint_r>
   113b8:	e971                	bnez	a0,1148c <_vfprintf_r+0xba0>
   113ba:	76c2                	ld	a3,48(sp)
   113bc:	7792                	ld	a5,288(sp)
   113be:	11812703          	lw	a4,280(sp)
   113c2:	36c1                	addiw	a3,a3,-16
   113c4:	6ea2                	ld	t4,8(sp)
   113c6:	835e                	mv	t1,s7
   113c8:	489d                	li	a7,7
   113ca:	fcdd44e3          	blt	s10,a3,11392 <_vfprintf_r+0xaa6>
   113ce:	2705                	addiw	a4,a4,1
   113d0:	97b6                	add	a5,a5,a3
   113d2:	00d33423          	sd	a3,8(t1)
   113d6:	01233023          	sd	s2,0(t1)
   113da:	0007069b          	sext.w	a3,a4
   113de:	10e12c23          	sw	a4,280(sp)
   113e2:	f23e                	sd	a5,288(sp)
   113e4:	471d                	li	a4,7
   113e6:	0341                	addi	t1,t1,16
   113e8:	f2d75963          	bge	a4,a3,10b1a <_vfprintf_r+0x22e>
   113ec:	0a10                	addi	a2,sp,272
   113ee:	85d2                	mv	a1,s4
   113f0:	8556                	mv	a0,s5
   113f2:	e476                	sd	t4,8(sp)
   113f4:	2b7070ef          	jal	ra,18eaa <__sprint_r>
   113f8:	e951                	bnez	a0,1148c <_vfprintf_r+0xba0>
   113fa:	7792                	ld	a5,288(sp)
   113fc:	6ea2                	ld	t4,8(sp)
   113fe:	835e                	mv	t1,s7
   11400:	f1aff06f          	j	10b1a <_vfprintf_r+0x22e>
   11404:	11812703          	lw	a4,280(sp)
   11408:	05dd5363          	bge	s10,t4,1144e <_vfprintf_r+0xb62>
   1140c:	489d                	li	a7,7
   1140e:	a021                	j	11416 <_vfprintf_r+0xb2a>
   11410:	3ec1                	addiw	t4,t4,-16
   11412:	03dd5e63          	bge	s10,t4,1144e <_vfprintf_r+0xb62>
   11416:	2705                	addiw	a4,a4,1
   11418:	07c1                	addi	a5,a5,16
   1141a:	01233023          	sd	s2,0(t1)
   1141e:	01a33423          	sd	s10,8(t1)
   11422:	f23e                	sd	a5,288(sp)
   11424:	10e12c23          	sw	a4,280(sp)
   11428:	0341                	addi	t1,t1,16
   1142a:	fee8d3e3          	bge	a7,a4,11410 <_vfprintf_r+0xb24>
   1142e:	0a10                	addi	a2,sp,272
   11430:	85d2                	mv	a1,s4
   11432:	8556                	mv	a0,s5
   11434:	e476                	sd	t4,8(sp)
   11436:	275070ef          	jal	ra,18eaa <__sprint_r>
   1143a:	e929                	bnez	a0,1148c <_vfprintf_r+0xba0>
   1143c:	6ea2                	ld	t4,8(sp)
   1143e:	7792                	ld	a5,288(sp)
   11440:	11812703          	lw	a4,280(sp)
   11444:	3ec1                	addiw	t4,t4,-16
   11446:	835e                	mv	t1,s7
   11448:	489d                	li	a7,7
   1144a:	fddd46e3          	blt	s10,t4,11416 <_vfprintf_r+0xb2a>
   1144e:	0017069b          	addiw	a3,a4,1
   11452:	97f6                	add	a5,a5,t4
   11454:	01233023          	sd	s2,0(t1)
   11458:	01d33423          	sd	t4,8(t1)
   1145c:	f23e                	sd	a5,288(sp)
   1145e:	10d12c23          	sw	a3,280(sp)
   11462:	471d                	li	a4,7
   11464:	0341                	addi	t1,t1,16
   11466:	ead75e63          	bge	a4,a3,10b22 <_vfprintf_r+0x236>
   1146a:	0a10                	addi	a2,sp,272
   1146c:	85d2                	mv	a1,s4
   1146e:	8556                	mv	a0,s5
   11470:	23b070ef          	jal	ra,18eaa <__sprint_r>
   11474:	ed01                	bnez	a0,1148c <_vfprintf_r+0xba0>
   11476:	7792                	ld	a5,288(sp)
   11478:	835e                	mv	t1,s7
   1147a:	ea8ff06f          	j	10b22 <_vfprintf_r+0x236>
   1147e:	0a10                	addi	a2,sp,272
   11480:	85d2                	mv	a1,s4
   11482:	8556                	mv	a0,s5
   11484:	227070ef          	jal	ra,18eaa <__sprint_r>
   11488:	ee050163          	beqz	a0,10b6a <_vfprintf_r+0x27e>
   1148c:	67e2                	ld	a5,24(sp)
   1148e:	f0078063          	beqz	a5,10b8e <_vfprintf_r+0x2a2>
   11492:	85be                	mv	a1,a5
   11494:	8556                	mv	a0,s5
   11496:	025010ef          	jal	ra,12cba <_free_r>
   1149a:	ef4ff06f          	j	10b8e <_vfprintf_r+0x2a2>
   1149e:	11812603          	lw	a2,280(sp)
   114a2:	00178d93          	addi	s11,a5,1
   114a6:	7782                	ld	a5,32(sp)
   114a8:	0016071b          	addiw	a4,a2,1
   114ac:	4585                	li	a1,1
   114ae:	01933023          	sd	s9,0(t1)
   114b2:	86ba                	mv	a3,a4
   114b4:	01030c13          	addi	s8,t1,16
   114b8:	32f5d863          	bge	a1,a5,117e8 <_vfprintf_r+0xefc>
   114bc:	4605                	li	a2,1
   114be:	10d12c23          	sw	a3,280(sp)
   114c2:	00c33423          	sd	a2,8(t1)
   114c6:	f26e                	sd	s11,288(sp)
   114c8:	469d                	li	a3,7
   114ca:	5ce6c463          	blt	a3,a4,11a92 <_vfprintf_r+0x11a6>
   114ce:	77c6                	ld	a5,112(sp)
   114d0:	0017069b          	addiw	a3,a4,1
   114d4:	7766                	ld	a4,120(sp)
   114d6:	9dbe                	add	s11,s11,a5
   114d8:	00fc3423          	sd	a5,8(s8)
   114dc:	00ec3023          	sd	a4,0(s8)
   114e0:	10d12c23          	sw	a3,280(sp)
   114e4:	0006871b          	sext.w	a4,a3
   114e8:	f26e                	sd	s11,288(sp)
   114ea:	469d                	li	a3,7
   114ec:	0c41                	addi	s8,s8,16
   114ee:	5ae6ce63          	blt	a3,a4,11aaa <_vfprintf_r+0x11be>
   114f2:	6512                	ld	a0,256(sp)
   114f4:	65b2                	ld	a1,264(sp)
   114f6:	0017089b          	addiw	a7,a4,1
   114fa:	4601                	li	a2,0
   114fc:	4681                	li	a3,0
   114fe:	e446                	sd	a7,8(sp)
   11500:	f83a                	sd	a4,48(sp)
   11502:	421090ef          	jal	ra,1b122 <__eqtf2>
   11506:	68a2                	ld	a7,8(sp)
   11508:	7782                	ld	a5,32(sp)
   1150a:	010c0313          	addi	t1,s8,16
   1150e:	0008861b          	sext.w	a2,a7
   11512:	fff7869b          	addiw	a3,a5,-1
   11516:	2e050963          	beqz	a0,11808 <_vfprintf_r+0xf1c>
   1151a:	9db6                	add	s11,s11,a3
   1151c:	001c8813          	addi	a6,s9,1
   11520:	00dc3423          	sd	a3,8(s8)
   11524:	010c3023          	sd	a6,0(s8)
   11528:	f26e                	sd	s11,288(sp)
   1152a:	11112c23          	sw	a7,280(sp)
   1152e:	469d                	li	a3,7
   11530:	44c6c763          	blt	a3,a2,1197e <_vfprintf_r+0x1092>
   11534:	7742                	ld	a4,48(sp)
   11536:	020c0693          	addi	a3,s8,32
   1153a:	8c1a                	mv	s8,t1
   1153c:	0027061b          	addiw	a2,a4,2
   11540:	8336                	mv	t1,a3
   11542:	668a                	ld	a3,128(sp)
   11544:	1998                	addi	a4,sp,240
   11546:	00ec3023          	sd	a4,0(s8)
   1154a:	00dd87b3          	add	a5,s11,a3
   1154e:	00dc3423          	sd	a3,8(s8)
   11552:	f23e                	sd	a5,288(sp)
   11554:	10c12c23          	sw	a2,280(sp)
   11558:	471d                	li	a4,7
   1155a:	dec75963          	bge	a4,a2,10b4c <_vfprintf_r+0x260>
   1155e:	bc2d                	j	10f98 <_vfprintf_r+0x6ac>
   11560:	4705                	li	a4,1
   11562:	8826                	mv	a6,s1
   11564:	aae790e3          	bne	a5,a4,11004 <_vfprintf_r+0x718>
   11568:	47a5                	li	a5,9
   1156a:	3737e163          	bltu	a5,s3,118cc <_vfprintf_r+0xfe0>
   1156e:	0309899b          	addiw	s3,s3,48
   11572:	193105a3          	sb	s3,395(sp)
   11576:	84c2                	mv	s1,a6
   11578:	4c05                	li	s8,1
   1157a:	18b10c93          	addi	s9,sp,395
   1157e:	ed6ff06f          	j	10c54 <_vfprintf_r+0x368>
   11582:	11812703          	lw	a4,280(sp)
   11586:	0000b897          	auipc	a7,0xb
   1158a:	2b288893          	addi	a7,a7,690 # 1c838 <blanks.4520>
   1158e:	439d                	li	t2,7
   11590:	00dd4663          	blt	s10,a3,1159c <_vfprintf_r+0xcb0>
   11594:	a889                	j	115e6 <_vfprintf_r+0xcfa>
   11596:	36c1                	addiw	a3,a3,-16
   11598:	04dd5763          	bge	s10,a3,115e6 <_vfprintf_r+0xcfa>
   1159c:	2705                	addiw	a4,a4,1
   1159e:	07c1                	addi	a5,a5,16
   115a0:	01133023          	sd	a7,0(t1)
   115a4:	01a33423          	sd	s10,8(t1)
   115a8:	f23e                	sd	a5,288(sp)
   115aa:	10e12c23          	sw	a4,280(sp)
   115ae:	0341                	addi	t1,t1,16
   115b0:	fee3d3e3          	bge	t2,a4,11596 <_vfprintf_r+0xcaa>
   115b4:	0a10                	addi	a2,sp,272
   115b6:	85d2                	mv	a1,s4
   115b8:	8556                	mv	a0,s5
   115ba:	e4c6                	sd	a7,72(sp)
   115bc:	e0f6                	sd	t4,64(sp)
   115be:	fc7e                	sd	t6,56(sp)
   115c0:	f816                	sd	t0,48(sp)
   115c2:	e436                	sd	a3,8(sp)
   115c4:	0e7070ef          	jal	ra,18eaa <__sprint_r>
   115c8:	ec0512e3          	bnez	a0,1148c <_vfprintf_r+0xba0>
   115cc:	66a2                	ld	a3,8(sp)
   115ce:	7792                	ld	a5,288(sp)
   115d0:	11812703          	lw	a4,280(sp)
   115d4:	36c1                	addiw	a3,a3,-16
   115d6:	68a6                	ld	a7,72(sp)
   115d8:	6e86                	ld	t4,64(sp)
   115da:	7fe2                	ld	t6,56(sp)
   115dc:	72c2                	ld	t0,48(sp)
   115de:	835e                	mv	t1,s7
   115e0:	439d                	li	t2,7
   115e2:	fadd4de3          	blt	s10,a3,1159c <_vfprintf_r+0xcb0>
   115e6:	2705                	addiw	a4,a4,1
   115e8:	97b6                	add	a5,a5,a3
   115ea:	00d33423          	sd	a3,8(t1)
   115ee:	01133023          	sd	a7,0(t1)
   115f2:	0007069b          	sext.w	a3,a4
   115f6:	10e12c23          	sw	a4,280(sp)
   115fa:	f23e                	sd	a5,288(sp)
   115fc:	471d                	li	a4,7
   115fe:	0341                	addi	t1,t1,16
   11600:	cad75d63          	bge	a4,a3,10aba <_vfprintf_r+0x1ce>
   11604:	0a10                	addi	a2,sp,272
   11606:	85d2                	mv	a1,s4
   11608:	8556                	mv	a0,s5
   1160a:	fc76                	sd	t4,56(sp)
   1160c:	f87e                	sd	t6,48(sp)
   1160e:	e416                	sd	t0,8(sp)
   11610:	09b070ef          	jal	ra,18eaa <__sprint_r>
   11614:	e6051ce3          	bnez	a0,1148c <_vfprintf_r+0xba0>
   11618:	7792                	ld	a5,288(sp)
   1161a:	7ee2                	ld	t4,56(sp)
   1161c:	7fc2                	ld	t6,48(sp)
   1161e:	62a2                	ld	t0,8(sp)
   11620:	835e                	mv	t1,s7
   11622:	c98ff06f          	j	10aba <_vfprintf_r+0x1ce>
   11626:	0a10                	addi	a2,sp,272
   11628:	85d2                	mv	a1,s4
   1162a:	8556                	mv	a0,s5
   1162c:	f876                	sd	t4,48(sp)
   1162e:	e47e                	sd	t6,8(sp)
   11630:	07b070ef          	jal	ra,18eaa <__sprint_r>
   11634:	e4051ce3          	bnez	a0,1148c <_vfprintf_r+0xba0>
   11638:	7792                	ld	a5,288(sp)
   1163a:	7ec2                	ld	t4,48(sp)
   1163c:	6fa2                	ld	t6,8(sp)
   1163e:	835e                	mv	t1,s7
   11640:	cd2ff06f          	j	10b12 <_vfprintf_r+0x226>
   11644:	11812703          	lw	a4,280(sp)
   11648:	0000b897          	auipc	a7,0xb
   1164c:	1f088893          	addi	a7,a7,496 # 1c838 <blanks.4520>
   11650:	4c1d                	li	s8,7
   11652:	009d4663          	blt	s10,s1,1165e <_vfprintf_r+0xd72>
   11656:	a081                	j	11696 <_vfprintf_r+0xdaa>
   11658:	34c1                	addiw	s1,s1,-16
   1165a:	029d5e63          	bge	s10,s1,11696 <_vfprintf_r+0xdaa>
   1165e:	2705                	addiw	a4,a4,1
   11660:	07c1                	addi	a5,a5,16
   11662:	01133023          	sd	a7,0(t1)
   11666:	01a33423          	sd	s10,8(t1)
   1166a:	f23e                	sd	a5,288(sp)
   1166c:	10e12c23          	sw	a4,280(sp)
   11670:	0341                	addi	t1,t1,16
   11672:	feec53e3          	bge	s8,a4,11658 <_vfprintf_r+0xd6c>
   11676:	0a10                	addi	a2,sp,272
   11678:	85d2                	mv	a1,s4
   1167a:	8556                	mv	a0,s5
   1167c:	e446                	sd	a7,8(sp)
   1167e:	02d070ef          	jal	ra,18eaa <__sprint_r>
   11682:	e00515e3          	bnez	a0,1148c <_vfprintf_r+0xba0>
   11686:	34c1                	addiw	s1,s1,-16
   11688:	7792                	ld	a5,288(sp)
   1168a:	11812703          	lw	a4,280(sp)
   1168e:	68a2                	ld	a7,8(sp)
   11690:	835e                	mv	t1,s7
   11692:	fc9d46e3          	blt	s10,s1,1165e <_vfprintf_r+0xd72>
   11696:	0017069b          	addiw	a3,a4,1
   1169a:	97a6                	add	a5,a5,s1
   1169c:	01133023          	sd	a7,0(t1)
   116a0:	00933423          	sd	s1,8(t1)
   116a4:	f23e                	sd	a5,288(sp)
   116a6:	10d12c23          	sw	a3,280(sp)
   116aa:	471d                	li	a4,7
   116ac:	cad75663          	bge	a4,a3,10b58 <_vfprintf_r+0x26c>
   116b0:	0a10                	addi	a2,sp,272
   116b2:	85d2                	mv	a1,s4
   116b4:	8556                	mv	a0,s5
   116b6:	7f4070ef          	jal	ra,18eaa <__sprint_r>
   116ba:	dc0519e3          	bnez	a0,1148c <_vfprintf_r+0xba0>
   116be:	7792                	ld	a5,288(sp)
   116c0:	c98ff06f          	j	10b58 <_vfprintf_r+0x26c>
   116c4:	562e                	lw	a2,232(sp)
   116c6:	3ec05e63          	blez	a2,11ac2 <_vfprintf_r+0x11d6>
   116ca:	6766                	ld	a4,88(sp)
   116cc:	7682                	ld	a3,32(sp)
   116ce:	00070c1b          	sext.w	s8,a4
   116d2:	28e6c263          	blt	a3,a4,11956 <_vfprintf_r+0x106a>
   116d6:	03805263          	blez	s8,116fa <_vfprintf_r+0xe0e>
   116da:	11812703          	lw	a4,280(sp)
   116de:	97e2                	add	a5,a5,s8
   116e0:	01933023          	sd	s9,0(t1)
   116e4:	0017069b          	addiw	a3,a4,1
   116e8:	01833423          	sd	s8,8(t1)
   116ec:	f23e                	sd	a5,288(sp)
   116ee:	10d12c23          	sw	a3,280(sp)
   116f2:	471d                	li	a4,7
   116f4:	0341                	addi	t1,t1,16
   116f6:	6ed74d63          	blt	a4,a3,11df0 <_vfprintf_r+0x1504>
   116fa:	fffc4713          	not	a4,s8
   116fe:	977d                	srai	a4,a4,0x3f
   11700:	00ec7c33          	and	s8,s8,a4
   11704:	6766                	ld	a4,88(sp)
   11706:	41870c3b          	subw	s8,a4,s8
   1170a:	33804c63          	bgtz	s8,11a42 <_vfprintf_r+0x1156>
   1170e:	66e6                	ld	a3,88(sp)
   11710:	4004f713          	andi	a4,s1,1024
   11714:	00dc8db3          	add	s11,s9,a3
   11718:	54071f63          	bnez	a4,11c76 <_vfprintf_r+0x138a>
   1171c:	572e                	lw	a4,232(sp)
   1171e:	7682                	ld	a3,32(sp)
   11720:	00d74663          	blt	a4,a3,1172c <_vfprintf_r+0xe40>
   11724:	0014f693          	andi	a3,s1,1
   11728:	6e068063          	beqz	a3,11e08 <_vfprintf_r+0x151c>
   1172c:	76e6                	ld	a3,120(sp)
   1172e:	7646                	ld	a2,112(sp)
   11730:	0341                	addi	t1,t1,16
   11732:	fed33823          	sd	a3,-16(t1)
   11736:	11812683          	lw	a3,280(sp)
   1173a:	97b2                	add	a5,a5,a2
   1173c:	fec33c23          	sd	a2,-8(t1)
   11740:	2685                	addiw	a3,a3,1
   11742:	0006861b          	sext.w	a2,a3
   11746:	10d12c23          	sw	a3,280(sp)
   1174a:	f23e                	sd	a5,288(sp)
   1174c:	469d                	li	a3,7
   1174e:	22c6c7e3          	blt	a3,a2,1217c <_vfprintf_r+0x1890>
   11752:	7682                	ld	a3,32(sp)
   11754:	00dc8633          	add	a2,s9,a3
   11758:	40e6873b          	subw	a4,a3,a4
   1175c:	41b6063b          	subw	a2,a2,s11
   11760:	0007069b          	sext.w	a3,a4
   11764:	00d65363          	bge	a2,a3,1176a <_vfprintf_r+0xe7e>
   11768:	8732                	mv	a4,a2
   1176a:	00070c9b          	sext.w	s9,a4
   1176e:	03905263          	blez	s9,11792 <_vfprintf_r+0xea6>
   11772:	11812603          	lw	a2,280(sp)
   11776:	97e6                	add	a5,a5,s9
   11778:	01b33023          	sd	s11,0(t1)
   1177c:	0016059b          	addiw	a1,a2,1
   11780:	01933423          	sd	s9,8(t1)
   11784:	f23e                	sd	a5,288(sp)
   11786:	10b12c23          	sw	a1,280(sp)
   1178a:	461d                	li	a2,7
   1178c:	0341                	addi	t1,t1,16
   1178e:	26b644e3          	blt	a2,a1,121f6 <_vfprintf_r+0x190a>
   11792:	fffccc13          	not	s8,s9
   11796:	43fc5c13          	srai	s8,s8,0x3f
   1179a:	018cfc33          	and	s8,s9,s8
   1179e:	41868c3b          	subw	s8,a3,s8
   117a2:	bb805563          	blez	s8,10b4c <_vfprintf_r+0x260>
   117a6:	11812703          	lw	a4,280(sp)
   117aa:	3b8d5563          	bge	s10,s8,11b54 <_vfprintf_r+0x1268>
   117ae:	4c9d                	li	s9,7
   117b0:	a021                	j	117b8 <_vfprintf_r+0xecc>
   117b2:	3c41                	addiw	s8,s8,-16
   117b4:	3b8d5063          	bge	s10,s8,11b54 <_vfprintf_r+0x1268>
   117b8:	2705                	addiw	a4,a4,1
   117ba:	07c1                	addi	a5,a5,16
   117bc:	01233023          	sd	s2,0(t1)
   117c0:	01a33423          	sd	s10,8(t1)
   117c4:	f23e                	sd	a5,288(sp)
   117c6:	10e12c23          	sw	a4,280(sp)
   117ca:	0341                	addi	t1,t1,16
   117cc:	feecd3e3          	bge	s9,a4,117b2 <_vfprintf_r+0xec6>
   117d0:	0a10                	addi	a2,sp,272
   117d2:	85d2                	mv	a1,s4
   117d4:	8556                	mv	a0,s5
   117d6:	6d4070ef          	jal	ra,18eaa <__sprint_r>
   117da:	ca0519e3          	bnez	a0,1148c <_vfprintf_r+0xba0>
   117de:	7792                	ld	a5,288(sp)
   117e0:	11812703          	lw	a4,280(sp)
   117e4:	835e                	mv	t1,s7
   117e6:	b7f1                	j	117b2 <_vfprintf_r+0xec6>
   117e8:	0014f513          	andi	a0,s1,1
   117ec:	cc0518e3          	bnez	a0,114bc <_vfprintf_r+0xbd0>
   117f0:	00b33423          	sd	a1,8(t1)
   117f4:	f26e                	sd	s11,288(sp)
   117f6:	10e12c23          	sw	a4,280(sp)
   117fa:	469d                	li	a3,7
   117fc:	18e6c163          	blt	a3,a4,1197e <_vfprintf_r+0x1092>
   11800:	2609                	addiw	a2,a2,2
   11802:	02030313          	addi	t1,t1,32
   11806:	bb35                	j	11542 <_vfprintf_r+0xc56>
   11808:	d2d05de3          	blez	a3,11542 <_vfprintf_r+0xc56>
   1180c:	4cdd50e3          	bge	s10,a3,124cc <_vfprintf_r+0x1be0>
   11810:	4c9d                	li	s9,7
   11812:	a031                	j	1181e <_vfprintf_r+0xf32>
   11814:	36c1                	addiw	a3,a3,-16
   11816:	14dd5563          	bge	s10,a3,11960 <_vfprintf_r+0x1074>
   1181a:	0017089b          	addiw	a7,a4,1
   1181e:	0dc1                	addi	s11,s11,16
   11820:	012c3023          	sd	s2,0(s8)
   11824:	01ac3423          	sd	s10,8(s8)
   11828:	f26e                	sd	s11,288(sp)
   1182a:	0008871b          	sext.w	a4,a7
   1182e:	11112c23          	sw	a7,280(sp)
   11832:	0c41                	addi	s8,s8,16
   11834:	feecd0e3          	bge	s9,a4,11814 <_vfprintf_r+0xf28>
   11838:	0a10                	addi	a2,sp,272
   1183a:	85d2                	mv	a1,s4
   1183c:	8556                	mv	a0,s5
   1183e:	e436                	sd	a3,8(sp)
   11840:	66a070ef          	jal	ra,18eaa <__sprint_r>
   11844:	c40514e3          	bnez	a0,1148c <_vfprintf_r+0xba0>
   11848:	7d92                	ld	s11,288(sp)
   1184a:	11812703          	lw	a4,280(sp)
   1184e:	66a2                	ld	a3,8(sp)
   11850:	8c5e                	mv	s8,s7
   11852:	b7c9                	j	11814 <_vfprintf_r+0xf28>
   11854:	01087793          	andi	a5,a6,16
   11858:	eb8d                	bnez	a5,1188a <_vfprintf_r+0xf9e>
   1185a:	66c2                	ld	a3,16(sp)
   1185c:	04087793          	andi	a5,a6,64
   11860:	0006a983          	lw	s3,0(a3)
   11864:	36078c63          	beqz	a5,11bdc <_vfprintf_r+0x12f0>
   11868:	19c2                	slli	s3,s3,0x30
   1186a:	0309d993          	srli	s3,s3,0x30
   1186e:	e83a                	sd	a4,16(sp)
   11870:	4785                	li	a5,1
   11872:	c26ff06f          	j	10c98 <_vfprintf_r+0x3ac>
   11876:	0014f713          	andi	a4,s1,1
   1187a:	ac070963          	beqz	a4,10b4c <_vfprintf_r+0x260>
   1187e:	b461                	j	11306 <_vfprintf_r+0xa1a>
   11880:	6782                	ld	a5,0(sp)
   11882:	8ca2                	mv	s9,s0
   11884:	e31c                	sd	a5,0(a4)
   11886:	af8ff06f          	j	10b7e <_vfprintf_r+0x292>
   1188a:	67c2                	ld	a5,16(sp)
   1188c:	e83a                	sd	a4,16(sp)
   1188e:	0007b983          	ld	s3,0(a5)
   11892:	4785                	li	a5,1
   11894:	c04ff06f          	j	10c98 <_vfprintf_r+0x3ac>
   11898:	67c2                	ld	a5,16(sp)
   1189a:	639c                	ld	a5,0(a5)
   1189c:	89be                	mv	s3,a5
   1189e:	b90ff06f          	j	10c2e <_vfprintf_r+0x342>
   118a2:	67c2                	ld	a5,16(sp)
   118a4:	0007b983          	ld	s3,0(a5)
   118a8:	be4ff06f          	j	10c8c <_vfprintf_r+0x3a0>
   118ac:	67c2                	ld	a5,16(sp)
   118ae:	07bd                	addi	a5,a5,15
   118b0:	9bc1                	andi	a5,a5,-16
   118b2:	6394                	ld	a3,0(a5)
   118b4:	6798                	ld	a4,8(a5)
   118b6:	07c1                	addi	a5,a5,16
   118b8:	e83e                	sd	a5,16(sp)
   118ba:	e236                	sd	a3,256(sp)
   118bc:	e63a                	sd	a4,264(sp)
   118be:	c50ff06f          	j	10d0e <_vfprintf_r+0x422>
   118c2:	e83a                	sd	a4,16(sp)
   118c4:	47a5                	li	a5,9
   118c6:	8826                	mv	a6,s1
   118c8:	cb37f3e3          	bgeu	a5,s3,1156e <_vfprintf_r+0xc82>
   118cc:	40087793          	andi	a5,a6,1024
   118d0:	18c10c13          	addi	s8,sp,396
   118d4:	2781                	sext.w	a5,a5
   118d6:	f002                	sd	zero,32(sp)
   118d8:	85e2                	mv	a1,s8
   118da:	44a9                	li	s1,10
   118dc:	4725                	li	a4,9
   118de:	0ff00693          	li	a3,255
   118e2:	a039                	j	118f0 <_vfprintf_r+0x1004>
   118e4:	0299d633          	divu	a2,s3,s1
   118e8:	9d3771e3          	bgeu	a4,s3,112aa <_vfprintf_r+0x9be>
   118ec:	89b2                	mv	s3,a2
   118ee:	85e6                	mv	a1,s9
   118f0:	7502                	ld	a0,32(sp)
   118f2:	fff58c93          	addi	s9,a1,-1
   118f6:	2505                	addiw	a0,a0,1
   118f8:	f02a                	sd	a0,32(sp)
   118fa:	0299f633          	remu	a2,s3,s1
   118fe:	0306061b          	addiw	a2,a2,48
   11902:	fec58fa3          	sb	a2,-1(a1)
   11906:	dff9                	beqz	a5,118e4 <_vfprintf_r+0xff8>
   11908:	7626                	ld	a2,104(sp)
   1190a:	00064603          	lbu	a2,0(a2)
   1190e:	fcc51be3          	bne	a0,a2,118e4 <_vfprintf_r+0xff8>
   11912:	fcd609e3          	beq	a2,a3,118e4 <_vfprintf_r+0xff8>
   11916:	99377ae3          	bgeu	a4,s3,112aa <_vfprintf_r+0x9be>
   1191a:	fc3e                	sd	a5,56(sp)
   1191c:	67aa                	ld	a5,136(sp)
   1191e:	65ca                	ld	a1,144(sp)
   11920:	f81a                	sd	t1,48(sp)
   11922:	40fc8cb3          	sub	s9,s9,a5
   11926:	863e                	mv	a2,a5
   11928:	8566                	mv	a0,s9
   1192a:	ec76                	sd	t4,24(sp)
   1192c:	e442                	sd	a6,8(sp)
   1192e:	07b050ef          	jal	ra,171a8 <strncpy>
   11932:	77a6                	ld	a5,104(sp)
   11934:	0299d633          	divu	a2,s3,s1
   11938:	6822                	ld	a6,8(sp)
   1193a:	0017c583          	lbu	a1,1(a5)
   1193e:	6ee2                	ld	t4,24(sp)
   11940:	7342                	ld	t1,48(sp)
   11942:	00b035b3          	snez	a1,a1
   11946:	97ae                	add	a5,a5,a1
   11948:	f4be                	sd	a5,104(sp)
   1194a:	f002                	sd	zero,32(sp)
   1194c:	77e2                	ld	a5,56(sp)
   1194e:	4725                	li	a4,9
   11950:	0ff00693          	li	a3,255
   11954:	bf61                	j	118ec <_vfprintf_r+0x1000>
   11956:	00068c1b          	sext.w	s8,a3
   1195a:	d98040e3          	bgtz	s8,116da <_vfprintf_r+0xdee>
   1195e:	bb71                	j	116fa <_vfprintf_r+0xe0e>
   11960:	0017061b          	addiw	a2,a4,1
   11964:	010c0713          	addi	a4,s8,16
   11968:	9db6                	add	s11,s11,a3
   1196a:	00dc3423          	sd	a3,8(s8)
   1196e:	012c3023          	sd	s2,0(s8)
   11972:	f26e                	sd	s11,288(sp)
   11974:	10c12c23          	sw	a2,280(sp)
   11978:	469d                	li	a3,7
   1197a:	44c6d563          	bge	a3,a2,11dc4 <_vfprintf_r+0x14d8>
   1197e:	0a10                	addi	a2,sp,272
   11980:	85d2                	mv	a1,s4
   11982:	8556                	mv	a0,s5
   11984:	526070ef          	jal	ra,18eaa <__sprint_r>
   11988:	b00512e3          	bnez	a0,1148c <_vfprintf_r+0xba0>
   1198c:	11812603          	lw	a2,280(sp)
   11990:	7d92                	ld	s11,288(sp)
   11992:	1a010313          	addi	t1,sp,416
   11996:	2605                	addiw	a2,a2,1
   11998:	8c5e                	mv	s8,s7
   1199a:	b665                	j	11542 <_vfprintf_r+0xc56>
   1199c:	8826                	mv	a6,s1
   1199e:	825ff06f          	j	111c2 <_vfprintf_r+0x8d6>
   119a2:	0000b797          	auipc	a5,0xb
   119a6:	cfe78793          	addi	a5,a5,-770 # 1c6a0 <__clzdi2+0x1a8>
   119aa:	f43e                	sd	a5,40(sp)
   119ac:	66c2                	ld	a3,16(sp)
   119ae:	0204f793          	andi	a5,s1,32
   119b2:	00868713          	addi	a4,a3,8
   119b6:	c7f9                	beqz	a5,11a84 <_vfprintf_r+0x1198>
   119b8:	0006b983          	ld	s3,0(a3)
   119bc:	0014f793          	andi	a5,s1,1
   119c0:	cf81                	beqz	a5,119d8 <_vfprintf_r+0x10ec>
   119c2:	00098b63          	beqz	s3,119d8 <_vfprintf_r+0x10ec>
   119c6:	0024e493          	ori	s1,s1,2
   119ca:	03000793          	li	a5,48
   119ce:	0ef10023          	sb	a5,224(sp)
   119d2:	0fb100a3          	sb	s11,225(sp)
   119d6:	2481                	sext.w	s1,s1
   119d8:	bff4f493          	andi	s1,s1,-1025
   119dc:	0004881b          	sext.w	a6,s1
   119e0:	e83a                	sd	a4,16(sp)
   119e2:	4789                	li	a5,2
   119e4:	ab4ff06f          	j	10c98 <_vfprintf_r+0x3ac>
   119e8:	2004e493          	ori	s1,s1,512
   119ec:	00144f03          	lbu	t5,1(s0)
   119f0:	2481                	sext.w	s1,s1
   119f2:	0405                	addi	s0,s0,1
   119f4:	82cff06f          	j	10a20 <_vfprintf_r+0x134>
   119f8:	0204e493          	ori	s1,s1,32
   119fc:	00144f03          	lbu	t5,1(s0)
   11a00:	2481                	sext.w	s1,s1
   11a02:	0405                	addi	s0,s0,1
   11a04:	81cff06f          	j	10a20 <_vfprintf_r+0x134>
   11a08:	0a10                	addi	a2,sp,272
   11a0a:	85d2                	mv	a1,s4
   11a0c:	8556                	mv	a0,s5
   11a0e:	49c070ef          	jal	ra,18eaa <__sprint_r>
   11a12:	a6051de3          	bnez	a0,1148c <_vfprintf_r+0xba0>
   11a16:	7792                	ld	a5,288(sp)
   11a18:	835e                	mv	t1,s7
   11a1a:	ba09                	j	1132c <_vfprintf_r+0xa40>
   11a1c:	0000b797          	auipc	a5,0xb
   11a20:	c6c78793          	addi	a5,a5,-916 # 1c688 <__clzdi2+0x190>
   11a24:	f43e                	sd	a5,40(sp)
   11a26:	b759                	j	119ac <_vfprintf_r+0x10c0>
   11a28:	4799                	li	a5,6
   11a2a:	000e8c1b          	sext.w	s8,t4
   11a2e:	3dd7eb63          	bltu	a5,t4,11e04 <_vfprintf_r+0x1518>
   11a32:	89e2                	mv	s3,s8
   11a34:	e836                	sd	a3,16(sp)
   11a36:	0000bc97          	auipc	s9,0xb
   11a3a:	c82c8c93          	addi	s9,s9,-894 # 1c6b8 <__clzdi2+0x1c0>
   11a3e:	854ff06f          	j	10a92 <_vfprintf_r+0x1a6>
   11a42:	11812703          	lw	a4,280(sp)
   11a46:	218d5063          	bge	s10,s8,11c46 <_vfprintf_r+0x135a>
   11a4a:	4d9d                	li	s11,7
   11a4c:	a021                	j	11a54 <_vfprintf_r+0x1168>
   11a4e:	3c41                	addiw	s8,s8,-16
   11a50:	1f8d5b63          	bge	s10,s8,11c46 <_vfprintf_r+0x135a>
   11a54:	2705                	addiw	a4,a4,1
   11a56:	07c1                	addi	a5,a5,16
   11a58:	01233023          	sd	s2,0(t1)
   11a5c:	01a33423          	sd	s10,8(t1)
   11a60:	f23e                	sd	a5,288(sp)
   11a62:	10e12c23          	sw	a4,280(sp)
   11a66:	0341                	addi	t1,t1,16
   11a68:	feedd3e3          	bge	s11,a4,11a4e <_vfprintf_r+0x1162>
   11a6c:	0a10                	addi	a2,sp,272
   11a6e:	85d2                	mv	a1,s4
   11a70:	8556                	mv	a0,s5
   11a72:	438070ef          	jal	ra,18eaa <__sprint_r>
   11a76:	a0051be3          	bnez	a0,1148c <_vfprintf_r+0xba0>
   11a7a:	7792                	ld	a5,288(sp)
   11a7c:	11812703          	lw	a4,280(sp)
   11a80:	835e                	mv	t1,s7
   11a82:	b7f1                	j	11a4e <_vfprintf_r+0x1162>
   11a84:	0104f793          	andi	a5,s1,16
   11a88:	c3cd                	beqz	a5,11b2a <_vfprintf_r+0x123e>
   11a8a:	67c2                	ld	a5,16(sp)
   11a8c:	0007b983          	ld	s3,0(a5)
   11a90:	b735                	j	119bc <_vfprintf_r+0x10d0>
   11a92:	0a10                	addi	a2,sp,272
   11a94:	85d2                	mv	a1,s4
   11a96:	8556                	mv	a0,s5
   11a98:	412070ef          	jal	ra,18eaa <__sprint_r>
   11a9c:	9e0518e3          	bnez	a0,1148c <_vfprintf_r+0xba0>
   11aa0:	7d92                	ld	s11,288(sp)
   11aa2:	11812703          	lw	a4,280(sp)
   11aa6:	8c5e                	mv	s8,s7
   11aa8:	b41d                	j	114ce <_vfprintf_r+0xbe2>
   11aaa:	0a10                	addi	a2,sp,272
   11aac:	85d2                	mv	a1,s4
   11aae:	8556                	mv	a0,s5
   11ab0:	3fa070ef          	jal	ra,18eaa <__sprint_r>
   11ab4:	9c051ce3          	bnez	a0,1148c <_vfprintf_r+0xba0>
   11ab8:	7d92                	ld	s11,288(sp)
   11aba:	11812703          	lw	a4,280(sp)
   11abe:	8c5e                	mv	s8,s7
   11ac0:	bc0d                	j	114f2 <_vfprintf_r+0xc06>
   11ac2:	11812703          	lw	a4,280(sp)
   11ac6:	0000b697          	auipc	a3,0xb
   11aca:	bfa68693          	addi	a3,a3,-1030 # 1c6c0 <__clzdi2+0x1c8>
   11ace:	00d33023          	sd	a3,0(t1)
   11ad2:	2705                	addiw	a4,a4,1
   11ad4:	4685                	li	a3,1
   11ad6:	0785                	addi	a5,a5,1
   11ad8:	00d33423          	sd	a3,8(t1)
   11adc:	10e12c23          	sw	a4,280(sp)
   11ae0:	0007069b          	sext.w	a3,a4
   11ae4:	f23e                	sd	a5,288(sp)
   11ae6:	471d                	li	a4,7
   11ae8:	0341                	addi	t1,t1,16
   11aea:	2ed74363          	blt	a4,a3,11dd0 <_vfprintf_r+0x14e4>
   11aee:	c4061363          	bnez	a2,10f34 <_vfprintf_r+0x648>
   11af2:	7682                	ld	a3,32(sp)
   11af4:	0014f713          	andi	a4,s1,1
   11af8:	8f55                	or	a4,a4,a3
   11afa:	e319                	bnez	a4,11b00 <_vfprintf_r+0x1214>
   11afc:	850ff06f          	j	10b4c <_vfprintf_r+0x260>
   11b00:	76e6                	ld	a3,120(sp)
   11b02:	7746                	ld	a4,112(sp)
   11b04:	00d33023          	sd	a3,0(t1)
   11b08:	11812683          	lw	a3,280(sp)
   11b0c:	97ba                	add	a5,a5,a4
   11b0e:	00e33423          	sd	a4,8(t1)
   11b12:	2685                	addiw	a3,a3,1
   11b14:	0006871b          	sext.w	a4,a3
   11b18:	10d12c23          	sw	a3,280(sp)
   11b1c:	f23e                	sd	a5,288(sp)
   11b1e:	469d                	li	a3,7
   11b20:	c2e6cd63          	blt	a3,a4,10f5a <_vfprintf_r+0x66e>
   11b24:	0341                	addi	t1,t1,16
   11b26:	c54ff06f          	j	10f7a <_vfprintf_r+0x68e>
   11b2a:	66c2                	ld	a3,16(sp)
   11b2c:	0404f793          	andi	a5,s1,64
   11b30:	0006a983          	lw	s3,0(a3)
   11b34:	cbe1                	beqz	a5,11c04 <_vfprintf_r+0x1318>
   11b36:	19c2                	slli	s3,s3,0x30
   11b38:	0309d993          	srli	s3,s3,0x30
   11b3c:	b541                	j	119bc <_vfprintf_r+0x10d0>
   11b3e:	0a10                	addi	a2,sp,272
   11b40:	85d2                	mv	a1,s4
   11b42:	8556                	mv	a0,s5
   11b44:	366070ef          	jal	ra,18eaa <__sprint_r>
   11b48:	940512e3          	bnez	a0,1148c <_vfprintf_r+0xba0>
   11b4c:	7792                	ld	a5,288(sp)
   11b4e:	835e                	mv	t1,s7
   11b50:	faeff06f          	j	112fe <_vfprintf_r+0xa12>
   11b54:	0017069b          	addiw	a3,a4,1
   11b58:	8736                	mv	a4,a3
   11b5a:	97e2                	add	a5,a5,s8
   11b5c:	01233023          	sd	s2,0(t1)
   11b60:	fdbfe06f          	j	10b3a <_vfprintf_r+0x24e>
   11b64:	6512                	ld	a0,256(sp)
   11b66:	65b2                	ld	a1,264(sp)
   11b68:	4601                	li	a2,0
   11b6a:	4681                	li	a3,0
   11b6c:	e41a                	sd	t1,8(sp)
   11b6e:	6f0090ef          	jal	ra,1b25e <__letf2>
   11b72:	6322                	ld	t1,8(sp)
   11b74:	54054763          	bltz	a0,120c2 <_vfprintf_r+0x17d6>
   11b78:	0df14783          	lbu	a5,223(sp)
   11b7c:	04700713          	li	a4,71
   11b80:	0000bc97          	auipc	s9,0xb
   11b84:	ae8c8c93          	addi	s9,s9,-1304 # 1c668 <__clzdi2+0x170>
   11b88:	25b74f63          	blt	a4,s11,11de6 <_vfprintf_r+0x14fa>
   11b8c:	f7f4f493          	andi	s1,s1,-129
   11b90:	ec02                	sd	zero,24(sp)
   11b92:	e882                	sd	zero,80(sp)
   11b94:	f082                	sd	zero,96(sp)
   11b96:	ec82                	sd	zero,88(sp)
   11b98:	2481                	sext.w	s1,s1
   11b9a:	498d                	li	s3,3
   11b9c:	4c0d                	li	s8,3
   11b9e:	4e81                	li	t4,0
   11ba0:	8c079863          	bnez	a5,10c70 <_vfprintf_r+0x384>
   11ba4:	ef9fe06f          	j	10a9c <_vfprintf_r+0x1b0>
   11ba8:	8566                	mv	a0,s9
   11baa:	e41a                	sd	t1,8(sp)
   11bac:	e836                	sd	a3,16(sp)
   11bae:	cabfe0ef          	jal	ra,10858 <strlen>
   11bb2:	00050c1b          	sext.w	s8,a0
   11bb6:	fffc4993          	not	s3,s8
   11bba:	0df14783          	lbu	a5,223(sp)
   11bbe:	43f9d993          	srai	s3,s3,0x3f
   11bc2:	013c79b3          	and	s3,s8,s3
   11bc6:	ec02                	sd	zero,24(sp)
   11bc8:	e882                	sd	zero,80(sp)
   11bca:	f082                	sd	zero,96(sp)
   11bcc:	ec82                	sd	zero,88(sp)
   11bce:	6322                	ld	t1,8(sp)
   11bd0:	2981                	sext.w	s3,s3
   11bd2:	4e81                	li	t4,0
   11bd4:	88079e63          	bnez	a5,10c70 <_vfprintf_r+0x384>
   11bd8:	ec5fe06f          	j	10a9c <_vfprintf_r+0x1b0>
   11bdc:	20087793          	andi	a5,a6,512
   11be0:	26078463          	beqz	a5,11e48 <_vfprintf_r+0x155c>
   11be4:	0ff9f993          	andi	s3,s3,255
   11be8:	e83a                	sd	a4,16(sp)
   11bea:	4785                	li	a5,1
   11bec:	8acff06f          	j	10c98 <_vfprintf_r+0x3ac>
   11bf0:	2004f793          	andi	a5,s1,512
   11bf4:	24078463          	beqz	a5,11e3c <_vfprintf_r+0x1550>
   11bf8:	67c2                	ld	a5,16(sp)
   11bfa:	00078983          	lb	s3,0(a5)
   11bfe:	87ce                	mv	a5,s3
   11c00:	82eff06f          	j	10c2e <_vfprintf_r+0x342>
   11c04:	2004f793          	andi	a5,s1,512
   11c08:	24078763          	beqz	a5,11e56 <_vfprintf_r+0x156a>
   11c0c:	0ff9f993          	andi	s3,s3,255
   11c10:	b375                	j	119bc <_vfprintf_r+0x10d0>
   11c12:	2004f793          	andi	a5,s1,512
   11c16:	20078e63          	beqz	a5,11e32 <_vfprintf_r+0x1546>
   11c1a:	0ff9f993          	andi	s3,s3,255
   11c1e:	86eff06f          	j	10c8c <_vfprintf_r+0x3a0>
   11c22:	67b2                	ld	a5,264(sp)
   11c24:	2207cd63          	bltz	a5,11e5e <_vfprintf_r+0x1572>
   11c28:	0df14783          	lbu	a5,223(sp)
   11c2c:	04700713          	li	a4,71
   11c30:	0000bc97          	auipc	s9,0xb
   11c34:	a48c8c93          	addi	s9,s9,-1464 # 1c678 <__clzdi2+0x180>
   11c38:	f5b75ae3          	bge	a4,s11,11b8c <_vfprintf_r+0x12a0>
   11c3c:	0000bc97          	auipc	s9,0xb
   11c40:	a44c8c93          	addi	s9,s9,-1468 # 1c680 <__clzdi2+0x188>
   11c44:	b7a1                	j	11b8c <_vfprintf_r+0x12a0>
   11c46:	0017069b          	addiw	a3,a4,1
   11c4a:	97e2                	add	a5,a5,s8
   11c4c:	01233023          	sd	s2,0(t1)
   11c50:	01833423          	sd	s8,8(t1)
   11c54:	f23e                	sd	a5,288(sp)
   11c56:	10d12c23          	sw	a3,280(sp)
   11c5a:	471d                	li	a4,7
   11c5c:	0341                	addi	t1,t1,16
   11c5e:	aad758e3          	bge	a4,a3,1170e <_vfprintf_r+0xe22>
   11c62:	0a10                	addi	a2,sp,272
   11c64:	85d2                	mv	a1,s4
   11c66:	8556                	mv	a0,s5
   11c68:	242070ef          	jal	ra,18eaa <__sprint_r>
   11c6c:	820510e3          	bnez	a0,1148c <_vfprintf_r+0xba0>
   11c70:	7792                	ld	a5,288(sp)
   11c72:	835e                	mv	t1,s7
   11c74:	bc69                	j	1170e <_vfprintf_r+0xe22>
   11c76:	7702                	ld	a4,32(sp)
   11c78:	4c1d                	li	s8,7
   11c7a:	9766                	add	a4,a4,s9
   11c7c:	f83a                	sd	a4,48(sp)
   11c7e:	7706                	ld	a4,96(sp)
   11c80:	cb49                	beqz	a4,11d12 <_vfprintf_r+0x1426>
   11c82:	6746                	ld	a4,80(sp)
   11c84:	eb51                	bnez	a4,11d18 <_vfprintf_r+0x142c>
   11c86:	7726                	ld	a4,104(sp)
   11c88:	177d                	addi	a4,a4,-1
   11c8a:	f4ba                	sd	a4,104(sp)
   11c8c:	7706                	ld	a4,96(sp)
   11c8e:	377d                	addiw	a4,a4,-1
   11c90:	f0ba                	sd	a4,96(sp)
   11c92:	674a                	ld	a4,144(sp)
   11c94:	66aa                	ld	a3,136(sp)
   11c96:	0341                	addi	t1,t1,16
   11c98:	fee33823          	sd	a4,-16(t1)
   11c9c:	11812703          	lw	a4,280(sp)
   11ca0:	97b6                	add	a5,a5,a3
   11ca2:	fed33c23          	sd	a3,-8(t1)
   11ca6:	2705                	addiw	a4,a4,1
   11ca8:	f23e                	sd	a5,288(sp)
   11caa:	0007069b          	sext.w	a3,a4
   11cae:	10e12c23          	sw	a4,280(sp)
   11cb2:	0cdc4e63          	blt	s8,a3,11d8e <_vfprintf_r+0x14a2>
   11cb6:	7726                	ld	a4,104(sp)
   11cb8:	00074603          	lbu	a2,0(a4)
   11cbc:	7742                	ld	a4,48(sp)
   11cbe:	41b705bb          	subw	a1,a4,s11
   11cc2:	0006071b          	sext.w	a4,a2
   11cc6:	0007069b          	sext.w	a3,a4
   11cca:	00e5d463          	bge	a1,a4,11cd2 <_vfprintf_r+0x13e6>
   11cce:	0005869b          	sext.w	a3,a1
   11cd2:	02d05663          	blez	a3,11cfe <_vfprintf_r+0x1412>
   11cd6:	11812703          	lw	a4,280(sp)
   11cda:	97b6                	add	a5,a5,a3
   11cdc:	01b33023          	sd	s11,0(t1)
   11ce0:	0017061b          	addiw	a2,a4,1
   11ce4:	00d33423          	sd	a3,8(t1)
   11ce8:	f23e                	sd	a5,288(sp)
   11cea:	10c12c23          	sw	a2,280(sp)
   11cee:	0acc4a63          	blt	s8,a2,11da2 <_vfprintf_r+0x14b6>
   11cf2:	7726                	ld	a4,104(sp)
   11cf4:	0341                	addi	t1,t1,16
   11cf6:	00074603          	lbu	a2,0(a4)
   11cfa:	0006071b          	sext.w	a4,a2
   11cfe:	fff6c593          	not	a1,a3
   11d02:	95fd                	srai	a1,a1,0x3f
   11d04:	8eed                	and	a3,a3,a1
   11d06:	9f15                	subw	a4,a4,a3
   11d08:	00e04c63          	bgtz	a4,11d20 <_vfprintf_r+0x1434>
   11d0c:	9db2                	add	s11,s11,a2
   11d0e:	7706                	ld	a4,96(sp)
   11d10:	fb2d                	bnez	a4,11c82 <_vfprintf_r+0x1396>
   11d12:	6746                	ld	a4,80(sp)
   11d14:	30070463          	beqz	a4,1201c <_vfprintf_r+0x1730>
   11d18:	6746                	ld	a4,80(sp)
   11d1a:	377d                	addiw	a4,a4,-1
   11d1c:	e8ba                	sd	a4,80(sp)
   11d1e:	bf95                	j	11c92 <_vfprintf_r+0x13a6>
   11d20:	11812683          	lw	a3,280(sp)
   11d24:	00ed4663          	blt	s10,a4,11d30 <_vfprintf_r+0x1444>
   11d28:	a081                	j	11d68 <_vfprintf_r+0x147c>
   11d2a:	3741                	addiw	a4,a4,-16
   11d2c:	02ed5e63          	bge	s10,a4,11d68 <_vfprintf_r+0x147c>
   11d30:	2685                	addiw	a3,a3,1
   11d32:	07c1                	addi	a5,a5,16
   11d34:	01233023          	sd	s2,0(t1)
   11d38:	01a33423          	sd	s10,8(t1)
   11d3c:	f23e                	sd	a5,288(sp)
   11d3e:	10d12c23          	sw	a3,280(sp)
   11d42:	0341                	addi	t1,t1,16
   11d44:	fedc53e3          	bge	s8,a3,11d2a <_vfprintf_r+0x143e>
   11d48:	0a10                	addi	a2,sp,272
   11d4a:	85d2                	mv	a1,s4
   11d4c:	8556                	mv	a0,s5
   11d4e:	e43a                	sd	a4,8(sp)
   11d50:	15a070ef          	jal	ra,18eaa <__sprint_r>
   11d54:	f2051c63          	bnez	a0,1148c <_vfprintf_r+0xba0>
   11d58:	6722                	ld	a4,8(sp)
   11d5a:	7792                	ld	a5,288(sp)
   11d5c:	11812683          	lw	a3,280(sp)
   11d60:	3741                	addiw	a4,a4,-16
   11d62:	835e                	mv	t1,s7
   11d64:	fced46e3          	blt	s10,a4,11d30 <_vfprintf_r+0x1444>
   11d68:	2685                	addiw	a3,a3,1
   11d6a:	97ba                	add	a5,a5,a4
   11d6c:	00e33423          	sd	a4,8(t1)
   11d70:	01233023          	sd	s2,0(t1)
   11d74:	f23e                	sd	a5,288(sp)
   11d76:	0006871b          	sext.w	a4,a3
   11d7a:	10d12c23          	sw	a3,280(sp)
   11d7e:	32ec4463          	blt	s8,a4,120a6 <_vfprintf_r+0x17ba>
   11d82:	7726                	ld	a4,104(sp)
   11d84:	0341                	addi	t1,t1,16
   11d86:	00074603          	lbu	a2,0(a4)
   11d8a:	9db2                	add	s11,s11,a2
   11d8c:	b749                	j	11d0e <_vfprintf_r+0x1422>
   11d8e:	0a10                	addi	a2,sp,272
   11d90:	85d2                	mv	a1,s4
   11d92:	8556                	mv	a0,s5
   11d94:	116070ef          	jal	ra,18eaa <__sprint_r>
   11d98:	ee051a63          	bnez	a0,1148c <_vfprintf_r+0xba0>
   11d9c:	7792                	ld	a5,288(sp)
   11d9e:	835e                	mv	t1,s7
   11da0:	bf19                	j	11cb6 <_vfprintf_r+0x13ca>
   11da2:	0a10                	addi	a2,sp,272
   11da4:	85d2                	mv	a1,s4
   11da6:	8556                	mv	a0,s5
   11da8:	e436                	sd	a3,8(sp)
   11daa:	100070ef          	jal	ra,18eaa <__sprint_r>
   11dae:	ec051f63          	bnez	a0,1148c <_vfprintf_r+0xba0>
   11db2:	77a6                	ld	a5,104(sp)
   11db4:	66a2                	ld	a3,8(sp)
   11db6:	835e                	mv	t1,s7
   11db8:	0007c603          	lbu	a2,0(a5)
   11dbc:	7792                	ld	a5,288(sp)
   11dbe:	0006071b          	sext.w	a4,a2
   11dc2:	bf35                	j	11cfe <_vfprintf_r+0x1412>
   11dc4:	2605                	addiw	a2,a2,1
   11dc6:	01070313          	addi	t1,a4,16
   11dca:	8c3a                	mv	s8,a4
   11dcc:	f76ff06f          	j	11542 <_vfprintf_r+0xc56>
   11dd0:	0a10                	addi	a2,sp,272
   11dd2:	85d2                	mv	a1,s4
   11dd4:	8556                	mv	a0,s5
   11dd6:	0d4070ef          	jal	ra,18eaa <__sprint_r>
   11dda:	ea051963          	bnez	a0,1148c <_vfprintf_r+0xba0>
   11dde:	562e                	lw	a2,232(sp)
   11de0:	7792                	ld	a5,288(sp)
   11de2:	835e                	mv	t1,s7
   11de4:	b329                	j	11aee <_vfprintf_r+0x1202>
   11de6:	0000bc97          	auipc	s9,0xb
   11dea:	88ac8c93          	addi	s9,s9,-1910 # 1c670 <__clzdi2+0x178>
   11dee:	bb79                	j	11b8c <_vfprintf_r+0x12a0>
   11df0:	0a10                	addi	a2,sp,272
   11df2:	85d2                	mv	a1,s4
   11df4:	8556                	mv	a0,s5
   11df6:	0b4070ef          	jal	ra,18eaa <__sprint_r>
   11dfa:	e8051963          	bnez	a0,1148c <_vfprintf_r+0xba0>
   11dfe:	7792                	ld	a5,288(sp)
   11e00:	835e                	mv	t1,s7
   11e02:	b8e5                	j	116fa <_vfprintf_r+0xe0e>
   11e04:	4c19                	li	s8,6
   11e06:	b135                	j	11a32 <_vfprintf_r+0x1146>
   11e08:	7682                	ld	a3,32(sp)
   11e0a:	00dc8833          	add	a6,s9,a3
   11e0e:	40e6873b          	subw	a4,a3,a4
   11e12:	41b80ebb          	subw	t4,a6,s11
   11e16:	0007069b          	sext.w	a3,a4
   11e1a:	00ded363          	bge	t4,a3,11e20 <_vfprintf_r+0x1534>
   11e1e:	8776                	mv	a4,t4
   11e20:	00070c9b          	sext.w	s9,a4
   11e24:	b2bd                	j	11792 <_vfprintf_r+0xea6>
   11e26:	6782                	ld	a5,0(sp)
   11e28:	8ca2                	mv	s9,s0
   11e2a:	00f71023          	sh	a5,0(a4)
   11e2e:	d51fe06f          	j	10b7e <_vfprintf_r+0x292>
   11e32:	1982                	slli	s3,s3,0x20
   11e34:	0209d993          	srli	s3,s3,0x20
   11e38:	e55fe06f          	j	10c8c <_vfprintf_r+0x3a0>
   11e3c:	67c2                	ld	a5,16(sp)
   11e3e:	0007a983          	lw	s3,0(a5)
   11e42:	87ce                	mv	a5,s3
   11e44:	debfe06f          	j	10c2e <_vfprintf_r+0x342>
   11e48:	1982                	slli	s3,s3,0x20
   11e4a:	0209d993          	srli	s3,s3,0x20
   11e4e:	e83a                	sd	a4,16(sp)
   11e50:	4785                	li	a5,1
   11e52:	e47fe06f          	j	10c98 <_vfprintf_r+0x3ac>
   11e56:	1982                	slli	s3,s3,0x20
   11e58:	0209d993          	srli	s3,s3,0x20
   11e5c:	b685                	j	119bc <_vfprintf_r+0x10d0>
   11e5e:	02d00793          	li	a5,45
   11e62:	0cf10fa3          	sb	a5,223(sp)
   11e66:	b3d9                	j	11c2c <_vfprintf_r+0x1340>
   11e68:	0a10                	addi	a2,sp,272
   11e6a:	85d2                	mv	a1,s4
   11e6c:	8556                	mv	a0,s5
   11e6e:	03c070ef          	jal	ra,18eaa <__sprint_r>
   11e72:	d1dfe06f          	j	10b8e <_vfprintf_r+0x2a2>
   11e76:	03000793          	li	a5,48
   11e7a:	0ef10023          	sb	a5,224(sp)
   11e7e:	05800713          	li	a4,88
   11e82:	0024e793          	ori	a5,s1,2
   11e86:	2781                	sext.w	a5,a5
   11e88:	0ee100a3          	sb	a4,225(sp)
   11e8c:	ed3e                	sd	a5,152(sp)
   11e8e:	06300713          	li	a4,99
   11e92:	ec02                	sd	zero,24(sp)
   11e94:	12810c93          	addi	s9,sp,296
   11e98:	47d74563          	blt	a4,t4,12302 <_vfprintf_r+0x1a16>
   11e9c:	69b2                	ld	s3,264(sp)
   11e9e:	fdfdf713          	andi	a4,s11,-33
   11ea2:	1024e493          	ori	s1,s1,258
   11ea6:	f0ba                	sd	a4,96(sp)
   11ea8:	e582                	sd	zero,200(sp)
   11eaa:	6c12                	ld	s8,256(sp)
   11eac:	2481                	sext.w	s1,s1
   11eae:	1e09c463          	bltz	s3,12096 <_vfprintf_r+0x17aa>
   11eb2:	06100793          	li	a5,97
   11eb6:	52fd8c63          	beq	s11,a5,123ee <_vfprintf_r+0x1b02>
   11eba:	04100793          	li	a5,65
   11ebe:	00fd8463          	beq	s11,a5,11ec6 <_vfprintf_r+0x15da>
   11ec2:	eb7fe06f          	j	10d78 <_vfprintf_r+0x48c>
   11ec6:	85ce                	mv	a1,s3
   11ec8:	8562                	mv	a0,s8
   11eca:	fc1a                	sd	t1,56(sp)
   11ecc:	f876                	sd	t4,48(sp)
   11ece:	3f80a0ef          	jal	ra,1c2c6 <__trunctfdf2>
   11ed2:	11a8                	addi	a0,sp,232
   11ed4:	765040ef          	jal	ra,16e38 <frexp>
   11ed8:	32e0a0ef          	jal	ra,1c206 <__extenddftf2>
   11edc:	0000b797          	auipc	a5,0xb
   11ee0:	9a478793          	addi	a5,a5,-1628 # 1c880 <zeroes.4521+0x38>
   11ee4:	6390                	ld	a2,0(a5)
   11ee6:	6794                	ld	a3,8(a5)
   11ee8:	41e090ef          	jal	ra,1b306 <__multf3>
   11eec:	4601                	li	a2,0
   11eee:	4681                	li	a3,0
   11ef0:	f02a                	sd	a0,32(sp)
   11ef2:	e42e                	sd	a1,8(sp)
   11ef4:	22e090ef          	jal	ra,1b122 <__eqtf2>
   11ef8:	62a2                	ld	t0,8(sp)
   11efa:	7702                	ld	a4,32(sp)
   11efc:	7ec2                	ld	t4,48(sp)
   11efe:	7362                	ld	t1,56(sp)
   11f00:	e119                	bnez	a0,11f06 <_vfprintf_r+0x161a>
   11f02:	4785                	li	a5,1
   11f04:	d5be                	sw	a5,232(sp)
   11f06:	0000a797          	auipc	a5,0xa
   11f0a:	78278793          	addi	a5,a5,1922 # 1c688 <__clzdi2+0x190>
   11f0e:	e8be                	sd	a5,80(sp)
   11f10:	020e9793          	slli	a5,t4,0x20
   11f14:	0000b697          	auipc	a3,0xb
   11f18:	94c68693          	addi	a3,a3,-1716 # 1c860 <zeroes.4521+0x18>
   11f1c:	9381                	srli	a5,a5,0x20
   11f1e:	6290                	ld	a2,0(a3)
   11f20:	0785                	addi	a5,a5,1
   11f22:	6694                	ld	a3,8(a3)
   11f24:	97e6                	add	a5,a5,s9
   11f26:	f13e                	sd	a5,160(sp)
   11f28:	01dc87bb          	addw	a5,s9,t4
   11f2c:	fd32                	sd	a2,184(sp)
   11f2e:	e1b6                	sd	a3,192(sp)
   11f30:	8c66                	mv	s8,s9
   11f32:	db3e                	sw	a5,180(sp)
   11f34:	a831                	j	11f50 <_vfprintf_r+0x1664>
   11f36:	4601                	li	a2,0
   11f38:	4681                	li	a3,0
   11f3a:	e4ae                	sd	a1,72(sp)
   11f3c:	e0aa                	sd	a0,64(sp)
   11f3e:	1e4090ef          	jal	ra,1b122 <__eqtf2>
   11f42:	7ec2                	ld	t4,48(sp)
   11f44:	7362                	ld	t1,56(sp)
   11f46:	6f86                	ld	t6,64(sp)
   11f48:	68a6                	ld	a7,72(sp)
   11f4a:	62a2                	ld	t0,8(sp)
   11f4c:	7702                	ld	a4,32(sp)
   11f4e:	c135                	beqz	a0,11fb2 <_vfprintf_r+0x16c6>
   11f50:	766a                	ld	a2,184(sp)
   11f52:	668e                	ld	a3,192(sp)
   11f54:	853a                	mv	a0,a4
   11f56:	8596                	mv	a1,t0
   11f58:	fc1a                	sd	t1,56(sp)
   11f5a:	f876                	sd	t4,48(sp)
   11f5c:	3aa090ef          	jal	ra,1b306 <__multf3>
   11f60:	e42e                	sd	a1,8(sp)
   11f62:	f02a                	sd	a0,32(sp)
   11f64:	1b00a0ef          	jal	ra,1c114 <__fixtfsi>
   11f68:	0005099b          	sext.w	s3,a0
   11f6c:	854e                	mv	a0,s3
   11f6e:	23c0a0ef          	jal	ra,1c1aa <__floatsitf>
   11f72:	7882                	ld	a7,32(sp)
   11f74:	6722                	ld	a4,8(sp)
   11f76:	862a                	mv	a2,a0
   11f78:	86ae                	mv	a3,a1
   11f7a:	8546                	mv	a0,a7
   11f7c:	85ba                	mv	a1,a4
   11f7e:	19b090ef          	jal	ra,1b918 <__subtf3>
   11f82:	67c6                	ld	a5,80(sp)
   11f84:	f562                	sd	s8,168(sp)
   11f86:	0c05                	addi	s8,s8,1
   11f88:	01378733          	add	a4,a5,s3
   11f8c:	57da                	lw	a5,180(sp)
   11f8e:	00074703          	lbu	a4,0(a4)
   11f92:	f02a                	sd	a0,32(sp)
   11f94:	418787bb          	subw	a5,a5,s8
   11f98:	ecbe                	sd	a5,88(sp)
   11f9a:	778a                	ld	a5,160(sp)
   11f9c:	feec0fa3          	sb	a4,-1(s8)
   11fa0:	e42e                	sd	a1,8(sp)
   11fa2:	7ec2                	ld	t4,48(sp)
   11fa4:	7362                	ld	t1,56(sp)
   11fa6:	8faa                	mv	t6,a0
   11fa8:	88ae                	mv	a7,a1
   11faa:	f98796e3          	bne	a5,s8,11f36 <_vfprintf_r+0x164a>
   11fae:	57fd                	li	a5,-1
   11fb0:	ecbe                	sd	a5,88(sp)
   11fb2:	0000b717          	auipc	a4,0xb
   11fb6:	8be70713          	addi	a4,a4,-1858 # 1c870 <zeroes.4521+0x28>
   11fba:	6310                	ld	a2,0(a4)
   11fbc:	6714                	ld	a3,8(a4)
   11fbe:	857e                	mv	a0,t6
   11fc0:	85c6                	mv	a1,a7
   11fc2:	f01a                	sd	t1,32(sp)
   11fc4:	e476                	sd	t4,8(sp)
   11fc6:	e4fe                	sd	t6,72(sp)
   11fc8:	e0b2                	sd	a2,64(sp)
   11fca:	fc36                	sd	a3,56(sp)
   11fcc:	f846                	sd	a7,48(sp)
   11fce:	1e8090ef          	jal	ra,1b1b6 <__getf2>
   11fd2:	6ea2                	ld	t4,8(sp)
   11fd4:	7302                	ld	t1,32(sp)
   11fd6:	2ca04f63          	bgtz	a0,122b4 <_vfprintf_r+0x19c8>
   11fda:	6fa6                	ld	t6,72(sp)
   11fdc:	78c2                	ld	a7,48(sp)
   11fde:	6606                	ld	a2,64(sp)
   11fe0:	76e2                	ld	a3,56(sp)
   11fe2:	857e                	mv	a0,t6
   11fe4:	85c6                	mv	a1,a7
   11fe6:	13c090ef          	jal	ra,1b122 <__eqtf2>
   11fea:	6ea2                	ld	t4,8(sp)
   11fec:	7302                	ld	t1,32(sp)
   11fee:	e509                	bnez	a0,11ff8 <_vfprintf_r+0x170c>
   11ff0:	0019f993          	andi	s3,s3,1
   11ff4:	2c099063          	bnez	s3,122b4 <_vfprintf_r+0x19c8>
   11ff8:	67e6                	ld	a5,88(sp)
   11ffa:	03000693          	li	a3,48
   11ffe:	00178713          	addi	a4,a5,1
   12002:	9762                	add	a4,a4,s8
   12004:	0007c763          	bltz	a5,12012 <_vfprintf_r+0x1726>
   12008:	0c05                	addi	s8,s8,1
   1200a:	fedc0fa3          	sb	a3,-1(s8)
   1200e:	ff871de3          	bne	a4,s8,12008 <_vfprintf_r+0x171c>
   12012:	419c07bb          	subw	a5,s8,s9
   12016:	f03e                	sd	a5,32(sp)
   12018:	de5fe06f          	j	10dfc <_vfprintf_r+0x510>
   1201c:	7702                	ld	a4,32(sp)
   1201e:	9766                	add	a4,a4,s9
   12020:	efb77e63          	bgeu	a4,s11,1171c <_vfprintf_r+0xe30>
   12024:	8dba                	mv	s11,a4
   12026:	ef6ff06f          	j	1171c <_vfprintf_r+0xe30>
   1202a:	6766                	ld	a4,88(sp)
   1202c:	57f5                	li	a5,-3
   1202e:	00f74463          	blt	a4,a5,12036 <_vfprintf_r+0x174a>
   12032:	00eed863          	bge	t4,a4,12042 <_vfprintf_r+0x1756>
   12036:	3df9                	addiw	s11,s11,-2
   12038:	fdfdf793          	andi	a5,s11,-33
   1203c:	f0be                	sd	a5,96(sp)
   1203e:	ddffe06f          	j	10e1c <_vfprintf_r+0x530>
   12042:	7782                	ld	a5,32(sp)
   12044:	6766                	ld	a4,88(sp)
   12046:	16f74563          	blt	a4,a5,121b0 <_vfprintf_r+0x18c4>
   1204a:	67ea                	ld	a5,152(sp)
   1204c:	8c3a                	mv	s8,a4
   1204e:	8b85                	andi	a5,a5,1
   12050:	c781                	beqz	a5,12058 <_vfprintf_r+0x176c>
   12052:	77c6                	ld	a5,112(sp)
   12054:	00e78c3b          	addw	s8,a5,a4
   12058:	67ea                	ld	a5,152(sp)
   1205a:	4007f793          	andi	a5,a5,1024
   1205e:	c781                	beqz	a5,12066 <_vfprintf_r+0x177a>
   12060:	67e6                	ld	a5,88(sp)
   12062:	30f04763          	bgtz	a5,12370 <_vfprintf_r+0x1a84>
   12066:	fffc4993          	not	s3,s8
   1206a:	43f9d993          	srai	s3,s3,0x3f
   1206e:	013c79b3          	and	s3,s8,s3
   12072:	2981                	sext.w	s3,s3
   12074:	06700d93          	li	s11,103
   12078:	e882                	sd	zero,80(sp)
   1207a:	f082                	sd	zero,96(sp)
   1207c:	e83fe06f          	j	10efe <_vfprintf_r+0x612>
   12080:	0df14783          	lbu	a5,223(sp)
   12084:	4e81                	li	t4,0
   12086:	c399                	beqz	a5,1208c <_vfprintf_r+0x17a0>
   12088:	be9fe06f          	j	10c70 <_vfprintf_r+0x384>
   1208c:	a11fe06f          	j	10a9c <_vfprintf_r+0x1b0>
   12090:	ed26                	sd	s1,152(sp)
   12092:	ec02                	sd	zero,24(sp)
   12094:	84fe                	mv	s1,t6
   12096:	57fd                	li	a5,-1
   12098:	17fe                	slli	a5,a5,0x3f
   1209a:	00f9c9b3          	xor	s3,s3,a5
   1209e:	02d00793          	li	a5,45
   120a2:	e5be                	sd	a5,200(sp)
   120a4:	b539                	j	11eb2 <_vfprintf_r+0x15c6>
   120a6:	0a10                	addi	a2,sp,272
   120a8:	85d2                	mv	a1,s4
   120aa:	8556                	mv	a0,s5
   120ac:	5ff060ef          	jal	ra,18eaa <__sprint_r>
   120b0:	bc051e63          	bnez	a0,1148c <_vfprintf_r+0xba0>
   120b4:	77a6                	ld	a5,104(sp)
   120b6:	835e                	mv	t1,s7
   120b8:	0007c603          	lbu	a2,0(a5)
   120bc:	7792                	ld	a5,288(sp)
   120be:	9db2                	add	s11,s11,a2
   120c0:	b1b9                	j	11d0e <_vfprintf_r+0x1422>
   120c2:	02d00793          	li	a5,45
   120c6:	0cf10fa3          	sb	a5,223(sp)
   120ca:	bc4d                	j	11b7c <_vfprintf_r+0x1290>
   120cc:	8776                	mv	a4,t4
   120ce:	11bc                	addi	a5,sp,232
   120d0:	0f810893          	addi	a7,sp,248
   120d4:	0ec10813          	addi	a6,sp,236
   120d8:	4689                	li	a3,2
   120da:	85e2                	mv	a1,s8
   120dc:	864e                	mv	a2,s3
   120de:	8556                	mv	a0,s5
   120e0:	f01a                	sd	t1,32(sp)
   120e2:	e476                	sd	t4,8(sp)
   120e4:	458020ef          	jal	ra,1453c <_ldtoa_r>
   120e8:	7706                	ld	a4,96(sp)
   120ea:	04700793          	li	a5,71
   120ee:	6ea2                	ld	t4,8(sp)
   120f0:	7302                	ld	t1,32(sp)
   120f2:	8caa                	mv	s9,a0
   120f4:	02f71d63          	bne	a4,a5,1212e <_vfprintf_r+0x1842>
   120f8:	67ea                	ld	a5,152(sp)
   120fa:	8b85                	andi	a5,a5,1
   120fc:	18079b63          	bnez	a5,12292 <_vfprintf_r+0x19a6>
   12100:	04700713          	li	a4,71
   12104:	77ee                	ld	a5,248(sp)
   12106:	f0ba                	sd	a4,96(sp)
   12108:	ceffe06f          	j	10df6 <_vfprintf_r+0x50a>
   1210c:	8776                	mv	a4,t4
   1210e:	0f810893          	addi	a7,sp,248
   12112:	0ec10813          	addi	a6,sp,236
   12116:	11bc                	addi	a5,sp,232
   12118:	468d                	li	a3,3
   1211a:	85e2                	mv	a1,s8
   1211c:	864e                	mv	a2,s3
   1211e:	8556                	mv	a0,s5
   12120:	f01a                	sd	t1,32(sp)
   12122:	e476                	sd	t4,8(sp)
   12124:	418020ef          	jal	ra,1453c <_ldtoa_r>
   12128:	6ea2                	ld	t4,8(sp)
   1212a:	7302                	ld	t1,32(sp)
   1212c:	8caa                	mv	s9,a0
   1212e:	7706                	ld	a4,96(sp)
   12130:	04600793          	li	a5,70
   12134:	01dc88b3          	add	a7,s9,t4
   12138:	00f70463          	beq	a4,a5,12140 <_vfprintf_r+0x1854>
   1213c:	c85fe06f          	j	10dc0 <_vfprintf_r+0x4d4>
   12140:	000cc703          	lbu	a4,0(s9)
   12144:	03000793          	li	a5,48
   12148:	00f70663          	beq	a4,a5,12154 <_vfprintf_r+0x1868>
   1214c:	572e                	lw	a4,232(sp)
   1214e:	98ba                	add	a7,a7,a4
   12150:	c71fe06f          	j	10dc0 <_vfprintf_r+0x4d4>
   12154:	4601                	li	a2,0
   12156:	4681                	li	a3,0
   12158:	8562                	mv	a0,s8
   1215a:	85ce                	mv	a1,s3
   1215c:	f846                	sd	a7,48(sp)
   1215e:	f01a                	sd	t1,32(sp)
   12160:	e476                	sd	t4,8(sp)
   12162:	7c1080ef          	jal	ra,1b122 <__eqtf2>
   12166:	6ea2                	ld	t4,8(sp)
   12168:	7302                	ld	t1,32(sp)
   1216a:	78c2                	ld	a7,48(sp)
   1216c:	d165                	beqz	a0,1214c <_vfprintf_r+0x1860>
   1216e:	4785                	li	a5,1
   12170:	41d7873b          	subw	a4,a5,t4
   12174:	d5ba                	sw	a4,232(sp)
   12176:	98ba                	add	a7,a7,a4
   12178:	c49fe06f          	j	10dc0 <_vfprintf_r+0x4d4>
   1217c:	0a10                	addi	a2,sp,272
   1217e:	85d2                	mv	a1,s4
   12180:	8556                	mv	a0,s5
   12182:	529060ef          	jal	ra,18eaa <__sprint_r>
   12186:	b0051363          	bnez	a0,1148c <_vfprintf_r+0xba0>
   1218a:	572e                	lw	a4,232(sp)
   1218c:	7792                	ld	a5,288(sp)
   1218e:	835e                	mv	t1,s7
   12190:	dc2ff06f          	j	11752 <_vfprintf_r+0xe66>
   12194:	0df14783          	lbu	a5,223(sp)
   12198:	e836                	sd	a3,16(sp)
   1219a:	e882                	sd	zero,80(sp)
   1219c:	f082                	sd	zero,96(sp)
   1219e:	ec82                	sd	zero,88(sp)
   121a0:	89f6                	mv	s3,t4
   121a2:	8c76                	mv	s8,t4
   121a4:	4e81                	li	t4,0
   121a6:	c399                	beqz	a5,121ac <_vfprintf_r+0x18c0>
   121a8:	ac9fe06f          	j	10c70 <_vfprintf_r+0x384>
   121ac:	8f1fe06f          	j	10a9c <_vfprintf_r+0x1b0>
   121b0:	7702                	ld	a4,32(sp)
   121b2:	77c6                	ld	a5,112(sp)
   121b4:	06700d93          	li	s11,103
   121b8:	00e78c3b          	addw	s8,a5,a4
   121bc:	6766                	ld	a4,88(sp)
   121be:	2ce05263          	blez	a4,12482 <_vfprintf_r+0x1b96>
   121c2:	67ea                	ld	a5,152(sp)
   121c4:	4007f793          	andi	a5,a5,1024
   121c8:	1a079663          	bnez	a5,12374 <_vfprintf_r+0x1a88>
   121cc:	fffc4993          	not	s3,s8
   121d0:	43f9d993          	srai	s3,s3,0x3f
   121d4:	013c79b3          	and	s3,s8,s3
   121d8:	2981                	sext.w	s3,s3
   121da:	bd79                	j	12078 <_vfprintf_r+0x178c>
   121dc:	67ea                	ld	a5,152(sp)
   121de:	6766                	ld	a4,88(sp)
   121e0:	8b85                	andi	a5,a5,1
   121e2:	00fee7b3          	or	a5,t4,a5
   121e6:	2ae05c63          	blez	a4,1249e <_vfprintf_r+0x1bb2>
   121ea:	26079d63          	bnez	a5,12464 <_vfprintf_r+0x1b78>
   121ee:	6c66                	ld	s8,88(sp)
   121f0:	06600d93          	li	s11,102
   121f4:	b7f9                	j	121c2 <_vfprintf_r+0x18d6>
   121f6:	0a10                	addi	a2,sp,272
   121f8:	85d2                	mv	a1,s4
   121fa:	8556                	mv	a0,s5
   121fc:	4af060ef          	jal	ra,18eaa <__sprint_r>
   12200:	a8051663          	bnez	a0,1148c <_vfprintf_r+0xba0>
   12204:	56ae                	lw	a3,232(sp)
   12206:	7702                	ld	a4,32(sp)
   12208:	7792                	ld	a5,288(sp)
   1220a:	835e                	mv	t1,s7
   1220c:	40d706bb          	subw	a3,a4,a3
   12210:	d82ff06f          	j	11792 <_vfprintf_r+0xea6>
   12214:	57fd                	li	a5,-1
   12216:	e03e                	sd	a5,0(sp)
   12218:	985fe06f          	j	10b9c <_vfprintf_r+0x2b0>
   1221c:	56c1                	li	a3,-16
   1221e:	40c00c3b          	negw	s8,a2
   12222:	02d65f63          	bge	a2,a3,12260 <_vfprintf_r+0x1974>
   12226:	4d9d                	li	s11,7
   12228:	a021                	j	12230 <_vfprintf_r+0x1944>
   1222a:	3c41                	addiw	s8,s8,-16
   1222c:	038d5a63          	bge	s10,s8,12260 <_vfprintf_r+0x1974>
   12230:	2705                	addiw	a4,a4,1
   12232:	07c1                	addi	a5,a5,16
   12234:	01233023          	sd	s2,0(t1)
   12238:	01a33423          	sd	s10,8(t1)
   1223c:	f23e                	sd	a5,288(sp)
   1223e:	10e12c23          	sw	a4,280(sp)
   12242:	0341                	addi	t1,t1,16
   12244:	feedd3e3          	bge	s11,a4,1222a <_vfprintf_r+0x193e>
   12248:	0a10                	addi	a2,sp,272
   1224a:	85d2                	mv	a1,s4
   1224c:	8556                	mv	a0,s5
   1224e:	45d060ef          	jal	ra,18eaa <__sprint_r>
   12252:	a2051d63          	bnez	a0,1148c <_vfprintf_r+0xba0>
   12256:	7792                	ld	a5,288(sp)
   12258:	11812703          	lw	a4,280(sp)
   1225c:	835e                	mv	t1,s7
   1225e:	b7f1                	j	1222a <_vfprintf_r+0x193e>
   12260:	2705                	addiw	a4,a4,1
   12262:	97e2                	add	a5,a5,s8
   12264:	01233023          	sd	s2,0(t1)
   12268:	01833423          	sd	s8,8(t1)
   1226c:	f23e                	sd	a5,288(sp)
   1226e:	10e12c23          	sw	a4,280(sp)
   12272:	469d                	li	a3,7
   12274:	8ae6d8e3          	bge	a3,a4,11b24 <_vfprintf_r+0x1238>
   12278:	0a10                	addi	a2,sp,272
   1227a:	85d2                	mv	a1,s4
   1227c:	8556                	mv	a0,s5
   1227e:	42d060ef          	jal	ra,18eaa <__sprint_r>
   12282:	a0051563          	bnez	a0,1148c <_vfprintf_r+0xba0>
   12286:	7792                	ld	a5,288(sp)
   12288:	11812703          	lw	a4,280(sp)
   1228c:	835e                	mv	t1,s7
   1228e:	cedfe06f          	j	10f7a <_vfprintf_r+0x68e>
   12292:	04700793          	li	a5,71
   12296:	01dc88b3          	add	a7,s9,t4
   1229a:	f0be                	sd	a5,96(sp)
   1229c:	b25fe06f          	j	10dc0 <_vfprintf_r+0x4d4>
   122a0:	8826                	mv	a6,s1
   122a2:	accff06f          	j	1156e <_vfprintf_r+0xc82>
   122a6:	03000793          	li	a5,48
   122aa:	0ef10023          	sb	a5,224(sp)
   122ae:	07800713          	li	a4,120
   122b2:	bec1                	j	11e82 <_vfprintf_r+0x1596>
   122b4:	77aa                	ld	a5,168(sp)
   122b6:	8762                	mv	a4,s8
   122b8:	fdbe                	sd	a5,248(sp)
   122ba:	67c6                	ld	a5,80(sp)
   122bc:	fffc4683          	lbu	a3,-1(s8)
   122c0:	00f7c603          	lbu	a2,15(a5)
   122c4:	00d61e63          	bne	a2,a3,122e0 <_vfprintf_r+0x19f4>
   122c8:	03000593          	li	a1,48
   122cc:	feb70fa3          	sb	a1,-1(a4)
   122d0:	776e                	ld	a4,248(sp)
   122d2:	fff70693          	addi	a3,a4,-1
   122d6:	fdb6                	sd	a3,248(sp)
   122d8:	fff74683          	lbu	a3,-1(a4)
   122dc:	fed608e3          	beq	a2,a3,122cc <_vfprintf_r+0x19e0>
   122e0:	0016861b          	addiw	a2,a3,1
   122e4:	03900593          	li	a1,57
   122e8:	0ff67613          	andi	a2,a2,255
   122ec:	00b68563          	beq	a3,a1,122f6 <_vfprintf_r+0x1a0a>
   122f0:	fec70fa3          	sb	a2,-1(a4)
   122f4:	bb39                	j	12012 <_vfprintf_r+0x1726>
   122f6:	67c6                	ld	a5,80(sp)
   122f8:	00a7c603          	lbu	a2,10(a5)
   122fc:	fec70fa3          	sb	a2,-1(a4)
   12300:	bb09                	j	12012 <_vfprintf_r+0x1726>
   12302:	001e859b          	addiw	a1,t4,1
   12306:	8556                	mv	a0,s5
   12308:	ec1a                	sd	t1,24(sp)
   1230a:	e476                	sd	t4,8(sp)
   1230c:	2a2030ef          	jal	ra,155ae <_malloc_r>
   12310:	6ea2                	ld	t4,8(sp)
   12312:	6362                	ld	t1,24(sp)
   12314:	8caa                	mv	s9,a0
   12316:	1e050063          	beqz	a0,124f6 <_vfprintf_r+0x1c0a>
   1231a:	ec2a                	sd	a0,24(sp)
   1231c:	b641                	j	11e9c <_vfprintf_r+0x15b0>
   1231e:	000e9363          	bnez	t4,12324 <_vfprintf_r+0x1a38>
   12322:	4e85                	li	t4,1
   12324:	69b2                	ld	s3,264(sp)
   12326:	1004ef93          	ori	t6,s1,256
   1232a:	6c12                	ld	s8,256(sp)
   1232c:	2f81                	sext.w	t6,t6
   1232e:	d609c1e3          	bltz	s3,12090 <_vfprintf_r+0x17a4>
   12332:	8776                	mv	a4,t4
   12334:	0f810893          	addi	a7,sp,248
   12338:	0ec10813          	addi	a6,sp,236
   1233c:	11bc                	addi	a5,sp,232
   1233e:	4689                	li	a3,2
   12340:	85e2                	mv	a1,s8
   12342:	864e                	mv	a2,s3
   12344:	8556                	mv	a0,s5
   12346:	ec7e                	sd	t6,24(sp)
   12348:	f01a                	sd	t1,32(sp)
   1234a:	e476                	sd	t4,8(sp)
   1234c:	1f0020ef          	jal	ra,1453c <_ldtoa_r>
   12350:	6fe2                	ld	t6,24(sp)
   12352:	ed26                	sd	s1,152(sp)
   12354:	6ea2                	ld	t4,8(sp)
   12356:	7302                	ld	t1,32(sp)
   12358:	8caa                	mv	s9,a0
   1235a:	84fe                	mv	s1,t6
   1235c:	ec02                	sd	zero,24(sp)
   1235e:	e582                	sd	zero,200(sp)
   12360:	bb61                	j	120f8 <_vfprintf_r+0x180c>
   12362:	4e99                	li	t4,6
   12364:	9fbfe06f          	j	10d5e <_vfprintf_r+0x472>
   12368:	c31c                	sw	a5,0(a4)
   1236a:	8ca2                	mv	s9,s0
   1236c:	813fe06f          	j	10b7e <_vfprintf_r+0x292>
   12370:	06700d93          	li	s11,103
   12374:	77a6                	ld	a5,104(sp)
   12376:	0ff00713          	li	a4,255
   1237a:	e882                	sd	zero,80(sp)
   1237c:	0007c783          	lbu	a5,0(a5)
   12380:	f082                	sd	zero,96(sp)
   12382:	02e78863          	beq	a5,a4,123b2 <_vfprintf_r+0x1ac6>
   12386:	0ff00693          	li	a3,255
   1238a:	6666                	ld	a2,88(sp)
   1238c:	0007871b          	sext.w	a4,a5
   12390:	02c7d163          	bge	a5,a2,123b2 <_vfprintf_r+0x1ac6>
   12394:	75a6                	ld	a1,104(sp)
   12396:	40e6073b          	subw	a4,a2,a4
   1239a:	ecba                	sd	a4,88(sp)
   1239c:	0015c783          	lbu	a5,1(a1)
   123a0:	cf8d                	beqz	a5,123da <_vfprintf_r+0x1aee>
   123a2:	7706                	ld	a4,96(sp)
   123a4:	2705                	addiw	a4,a4,1
   123a6:	f0ba                	sd	a4,96(sp)
   123a8:	00158713          	addi	a4,a1,1
   123ac:	f4ba                	sd	a4,104(sp)
   123ae:	fcd79ee3          	bne	a5,a3,1238a <_vfprintf_r+0x1a9e>
   123b2:	7706                	ld	a4,96(sp)
   123b4:	67c6                	ld	a5,80(sp)
   123b6:	9fb9                	addw	a5,a5,a4
   123b8:	672a                	ld	a4,136(sp)
   123ba:	02e787bb          	mulw	a5,a5,a4
   123be:	018787bb          	addw	a5,a5,s8
   123c2:	00078c1b          	sext.w	s8,a5
   123c6:	fffc4993          	not	s3,s8
   123ca:	43f9d993          	srai	s3,s3,0x3f
   123ce:	0137f7b3          	and	a5,a5,s3
   123d2:	0007899b          	sext.w	s3,a5
   123d6:	b29fe06f          	j	10efe <_vfprintf_r+0x612>
   123da:	6746                	ld	a4,80(sp)
   123dc:	77a6                	ld	a5,104(sp)
   123de:	2705                	addiw	a4,a4,1
   123e0:	0007c783          	lbu	a5,0(a5)
   123e4:	e8ba                	sd	a4,80(sp)
   123e6:	b7e1                	j	123ae <_vfprintf_r+0x1ac2>
   123e8:	ec02                	sd	zero,24(sp)
   123ea:	84be                	mv	s1,a5
   123ec:	b16d                	j	12096 <_vfprintf_r+0x17aa>
   123ee:	85ce                	mv	a1,s3
   123f0:	8562                	mv	a0,s8
   123f2:	fc1a                	sd	t1,56(sp)
   123f4:	f876                	sd	t4,48(sp)
   123f6:	6d1090ef          	jal	ra,1c2c6 <__trunctfdf2>
   123fa:	11a8                	addi	a0,sp,232
   123fc:	23d040ef          	jal	ra,16e38 <frexp>
   12400:	607090ef          	jal	ra,1c206 <__extenddftf2>
   12404:	0000a797          	auipc	a5,0xa
   12408:	47c78793          	addi	a5,a5,1148 # 1c880 <zeroes.4521+0x38>
   1240c:	6390                	ld	a2,0(a5)
   1240e:	6794                	ld	a3,8(a5)
   12410:	6f7080ef          	jal	ra,1b306 <__multf3>
   12414:	4601                	li	a2,0
   12416:	4681                	li	a3,0
   12418:	f02a                	sd	a0,32(sp)
   1241a:	e42e                	sd	a1,8(sp)
   1241c:	507080ef          	jal	ra,1b122 <__eqtf2>
   12420:	62a2                	ld	t0,8(sp)
   12422:	7702                	ld	a4,32(sp)
   12424:	7ec2                	ld	t4,48(sp)
   12426:	7362                	ld	t1,56(sp)
   12428:	e119                	bnez	a0,1242e <_vfprintf_r+0x1b42>
   1242a:	4785                	li	a5,1
   1242c:	d5be                	sw	a5,232(sp)
   1242e:	0000a797          	auipc	a5,0xa
   12432:	27278793          	addi	a5,a5,626 # 1c6a0 <__clzdi2+0x1a8>
   12436:	e8be                	sd	a5,80(sp)
   12438:	bce1                	j	11f10 <_vfprintf_r+0x1624>
   1243a:	0f210713          	addi	a4,sp,242
   1243e:	e699                	bnez	a3,1244c <_vfprintf_r+0x1b60>
   12440:	03000713          	li	a4,48
   12444:	0ee10923          	sb	a4,242(sp)
   12448:	0f310713          	addi	a4,sp,243
   1244c:	0c14                	addi	a3,sp,528
   1244e:	0307879b          	addiw	a5,a5,48
   12452:	40d706b3          	sub	a3,a4,a3
   12456:	00f70023          	sb	a5,0(a4)
   1245a:	1216879b          	addiw	a5,a3,289
   1245e:	e13e                	sd	a5,128(sp)
   12460:	a65fe06f          	j	10ec4 <_vfprintf_r+0x5d8>
   12464:	77c6                	ld	a5,112(sp)
   12466:	06600d93          	li	s11,102
   1246a:	00e78c3b          	addw	s8,a5,a4
   1246e:	01dc0c3b          	addw	s8,s8,t4
   12472:	bb81                	j	121c2 <_vfprintf_r+0x18d6>
   12474:	676a                	ld	a4,152(sp)
   12476:	8b05                	andi	a4,a4,1
   12478:	e319                	bnez	a4,1247e <_vfprintf_r+0x1b92>
   1247a:	a65fe06f          	j	10ede <_vfprintf_r+0x5f2>
   1247e:	a5bfe06f          	j	10ed8 <_vfprintf_r+0x5ec>
   12482:	40ec07bb          	subw	a5,s8,a4
   12486:	2785                	addiw	a5,a5,1
   12488:	00078c1b          	sext.w	s8,a5
   1248c:	fffc4993          	not	s3,s8
   12490:	43f9d993          	srai	s3,s3,0x3f
   12494:	0137f7b3          	and	a5,a5,s3
   12498:	0007899b          	sext.w	s3,a5
   1249c:	bef1                	j	12078 <_vfprintf_r+0x178c>
   1249e:	e791                	bnez	a5,124aa <_vfprintf_r+0x1bbe>
   124a0:	4985                	li	s3,1
   124a2:	06600d93          	li	s11,102
   124a6:	4c05                	li	s8,1
   124a8:	bec1                	j	12078 <_vfprintf_r+0x178c>
   124aa:	77c6                	ld	a5,112(sp)
   124ac:	06600d93          	li	s11,102
   124b0:	2785                	addiw	a5,a5,1
   124b2:	01d78ebb          	addw	t4,a5,t4
   124b6:	000e8c1b          	sext.w	s8,t4
   124ba:	fffc4993          	not	s3,s8
   124be:	43f9d993          	srai	s3,s3,0x3f
   124c2:	013efeb3          	and	t4,t4,s3
   124c6:	000e899b          	sext.w	s3,t4
   124ca:	b67d                	j	12078 <_vfprintf_r+0x178c>
   124cc:	871a                	mv	a4,t1
   124ce:	c9aff06f          	j	11968 <_vfprintf_r+0x107c>
   124d2:	66c2                	ld	a3,16(sp)
   124d4:	4298                	lw	a4,0(a3)
   124d6:	06a1                	addi	a3,a3,8
   124d8:	00070e9b          	sext.w	t4,a4
   124dc:	00075363          	bgez	a4,124e2 <_vfprintf_r+0x1bf6>
   124e0:	5efd                	li	t4,-1
   124e2:	00144f03          	lbu	t5,1(s0)
   124e6:	e836                	sd	a3,16(sp)
   124e8:	843e                	mv	s0,a5
   124ea:	d36fe06f          	j	10a20 <_vfprintf_r+0x134>
   124ee:	4789                	li	a5,2
   124f0:	e13e                	sd	a5,128(sp)
   124f2:	9d3fe06f          	j	10ec4 <_vfprintf_r+0x5d8>
   124f6:	010a5783          	lhu	a5,16(s4)
   124fa:	0407e793          	ori	a5,a5,64
   124fe:	00fa1823          	sh	a5,16(s4)
   12502:	e8cfe06f          	j	10b8e <_vfprintf_r+0x2a2>

0000000000012506 <vfprintf>:
   12506:	86b2                	mv	a3,a2
   12508:	862e                	mv	a2,a1
   1250a:	85aa                	mv	a1,a0
   1250c:	8601b503          	ld	a0,-1952(gp) # 1f588 <_impure_ptr>
   12510:	bdcfe06f          	j	108ec <_vfprintf_r>

0000000000012514 <__sbprintf>:
   12514:	0105d783          	lhu	a5,16(a1)
   12518:	0ac5ae03          	lw	t3,172(a1)
   1251c:	0125d303          	lhu	t1,18(a1)
   12520:	0305b883          	ld	a7,48(a1)
   12524:	0405b803          	ld	a6,64(a1)
   12528:	b3010113          	addi	sp,sp,-1232
   1252c:	9bf5                	andi	a5,a5,-3
   1252e:	40000713          	li	a4,1024
   12532:	4c813023          	sd	s0,1216(sp)
   12536:	00f11823          	sh	a5,16(sp)
   1253a:	842e                	mv	s0,a1
   1253c:	191c                	addi	a5,sp,176
   1253e:	858a                	mv	a1,sp
   12540:	4a913c23          	sd	s1,1208(sp)
   12544:	4b213823          	sd	s2,1200(sp)
   12548:	4c113423          	sd	ra,1224(sp)
   1254c:	892a                	mv	s2,a0
   1254e:	d772                	sw	t3,172(sp)
   12550:	00611923          	sh	t1,18(sp)
   12554:	f846                	sd	a7,48(sp)
   12556:	e0c2                	sd	a6,64(sp)
   12558:	e03e                	sd	a5,0(sp)
   1255a:	ec3e                	sd	a5,24(sp)
   1255c:	c63a                	sw	a4,12(sp)
   1255e:	d03a                	sw	a4,32(sp)
   12560:	d402                	sw	zero,40(sp)
   12562:	b8afe0ef          	jal	ra,108ec <_vfprintf_r>
   12566:	84aa                	mv	s1,a0
   12568:	02055963          	bgez	a0,1259a <__sbprintf+0x86>
   1256c:	01015783          	lhu	a5,16(sp)
   12570:	0407f793          	andi	a5,a5,64
   12574:	c799                	beqz	a5,12582 <__sbprintf+0x6e>
   12576:	01045783          	lhu	a5,16(s0)
   1257a:	0407e793          	ori	a5,a5,64
   1257e:	00f41823          	sh	a5,16(s0)
   12582:	4c813083          	ld	ra,1224(sp)
   12586:	4c013403          	ld	s0,1216(sp)
   1258a:	4b013903          	ld	s2,1200(sp)
   1258e:	8526                	mv	a0,s1
   12590:	4b813483          	ld	s1,1208(sp)
   12594:	4d010113          	addi	sp,sp,1232
   12598:	8082                	ret
   1259a:	858a                	mv	a1,sp
   1259c:	854a                	mv	a0,s2
   1259e:	354000ef          	jal	ra,128f2 <_fflush_r>
   125a2:	d569                	beqz	a0,1256c <__sbprintf+0x58>
   125a4:	54fd                	li	s1,-1
   125a6:	b7d9                	j	1256c <__sbprintf+0x58>

00000000000125a8 <__swsetup_r>:
   125a8:	1101                	addi	sp,sp,-32
   125aa:	e822                	sd	s0,16(sp)
   125ac:	e426                	sd	s1,8(sp)
   125ae:	ec06                	sd	ra,24(sp)
   125b0:	8601b783          	ld	a5,-1952(gp) # 1f588 <_impure_ptr>
   125b4:	84aa                	mv	s1,a0
   125b6:	842e                	mv	s0,a1
   125b8:	c399                	beqz	a5,125be <__swsetup_r+0x16>
   125ba:	4bb8                	lw	a4,80(a5)
   125bc:	cf49                	beqz	a4,12656 <__swsetup_r+0xae>
   125be:	01041703          	lh	a4,16(s0)
   125c2:	03071793          	slli	a5,a4,0x30
   125c6:	00877693          	andi	a3,a4,8
   125ca:	93c1                	srli	a5,a5,0x30
   125cc:	c29d                	beqz	a3,125f2 <__swsetup_r+0x4a>
   125ce:	6c14                	ld	a3,24(s0)
   125d0:	ce9d                	beqz	a3,1260e <__swsetup_r+0x66>
   125d2:	0017f613          	andi	a2,a5,1
   125d6:	ce39                	beqz	a2,12634 <__swsetup_r+0x8c>
   125d8:	5010                	lw	a2,32(s0)
   125da:	00042623          	sw	zero,12(s0)
   125de:	4501                	li	a0,0
   125e0:	40c0063b          	negw	a2,a2
   125e4:	d410                	sw	a2,40(s0)
   125e6:	ceb9                	beqz	a3,12644 <__swsetup_r+0x9c>
   125e8:	60e2                	ld	ra,24(sp)
   125ea:	6442                	ld	s0,16(sp)
   125ec:	64a2                	ld	s1,8(sp)
   125ee:	6105                	addi	sp,sp,32
   125f0:	8082                	ret
   125f2:	0107f693          	andi	a3,a5,16
   125f6:	cac1                	beqz	a3,12686 <__swsetup_r+0xde>
   125f8:	8b91                	andi	a5,a5,4
   125fa:	e3b5                	bnez	a5,1265e <__swsetup_r+0xb6>
   125fc:	6c14                	ld	a3,24(s0)
   125fe:	00876713          	ori	a4,a4,8
   12602:	03071793          	slli	a5,a4,0x30
   12606:	00e41823          	sh	a4,16(s0)
   1260a:	93c1                	srli	a5,a5,0x30
   1260c:	f2f9                	bnez	a3,125d2 <__swsetup_r+0x2a>
   1260e:	2807f613          	andi	a2,a5,640
   12612:	20000593          	li	a1,512
   12616:	fab60ee3          	beq	a2,a1,125d2 <__swsetup_r+0x2a>
   1261a:	85a2                	mv	a1,s0
   1261c:	8526                	mv	a0,s1
   1261e:	6d5020ef          	jal	ra,154f2 <__smakebuf_r>
   12622:	01041703          	lh	a4,16(s0)
   12626:	6c14                	ld	a3,24(s0)
   12628:	03071793          	slli	a5,a4,0x30
   1262c:	93c1                	srli	a5,a5,0x30
   1262e:	0017f613          	andi	a2,a5,1
   12632:	f25d                	bnez	a2,125d8 <__swsetup_r+0x30>
   12634:	0027f613          	andi	a2,a5,2
   12638:	4581                	li	a1,0
   1263a:	e211                	bnez	a2,1263e <__swsetup_r+0x96>
   1263c:	500c                	lw	a1,32(s0)
   1263e:	c44c                	sw	a1,12(s0)
   12640:	4501                	li	a0,0
   12642:	f2dd                	bnez	a3,125e8 <__swsetup_r+0x40>
   12644:	0807f793          	andi	a5,a5,128
   12648:	d3c5                	beqz	a5,125e8 <__swsetup_r+0x40>
   1264a:	04076713          	ori	a4,a4,64
   1264e:	00e41823          	sh	a4,16(s0)
   12652:	557d                	li	a0,-1
   12654:	bf51                	j	125e8 <__swsetup_r+0x40>
   12656:	853e                	mv	a0,a5
   12658:	530000ef          	jal	ra,12b88 <__sinit>
   1265c:	b78d                	j	125be <__swsetup_r+0x16>
   1265e:	6c2c                	ld	a1,88(s0)
   12660:	cd81                	beqz	a1,12678 <__swsetup_r+0xd0>
   12662:	07440793          	addi	a5,s0,116
   12666:	00f58763          	beq	a1,a5,12674 <__swsetup_r+0xcc>
   1266a:	8526                	mv	a0,s1
   1266c:	64e000ef          	jal	ra,12cba <_free_r>
   12670:	01041703          	lh	a4,16(s0)
   12674:	04043c23          	sd	zero,88(s0)
   12678:	6c14                	ld	a3,24(s0)
   1267a:	fdb77713          	andi	a4,a4,-37
   1267e:	00042423          	sw	zero,8(s0)
   12682:	e014                	sd	a3,0(s0)
   12684:	bfad                	j	125fe <__swsetup_r+0x56>
   12686:	47a5                	li	a5,9
   12688:	c09c                	sw	a5,0(s1)
   1268a:	04076713          	ori	a4,a4,64
   1268e:	00e41823          	sh	a4,16(s0)
   12692:	557d                	li	a0,-1
   12694:	bf91                	j	125e8 <__swsetup_r+0x40>

0000000000012696 <__call_exitprocs>:
   12696:	715d                	addi	sp,sp,-80
   12698:	f052                	sd	s4,32(sp)
   1269a:	8301ba03          	ld	s4,-2000(gp) # 1f558 <_global_impure_ptr>
   1269e:	f84a                	sd	s2,48(sp)
   126a0:	1f8a3903          	ld	s2,504(s4)
   126a4:	e486                	sd	ra,72(sp)
   126a6:	e0a2                	sd	s0,64(sp)
   126a8:	fc26                	sd	s1,56(sp)
   126aa:	f44e                	sd	s3,40(sp)
   126ac:	ec56                	sd	s5,24(sp)
   126ae:	e85a                	sd	s6,16(sp)
   126b0:	e45e                	sd	s7,8(sp)
   126b2:	e062                	sd	s8,0(sp)
   126b4:	02090863          	beqz	s2,126e4 <__call_exitprocs+0x4e>
   126b8:	8b2a                	mv	s6,a0
   126ba:	8bae                	mv	s7,a1
   126bc:	4a85                	li	s5,1
   126be:	59fd                	li	s3,-1
   126c0:	00892483          	lw	s1,8(s2)
   126c4:	fff4841b          	addiw	s0,s1,-1
   126c8:	00044e63          	bltz	s0,126e4 <__call_exitprocs+0x4e>
   126cc:	048e                	slli	s1,s1,0x3
   126ce:	94ca                	add	s1,s1,s2
   126d0:	020b8663          	beqz	s7,126fc <__call_exitprocs+0x66>
   126d4:	2084b783          	ld	a5,520(s1)
   126d8:	03778263          	beq	a5,s7,126fc <__call_exitprocs+0x66>
   126dc:	347d                	addiw	s0,s0,-1
   126de:	14e1                	addi	s1,s1,-8
   126e0:	ff3418e3          	bne	s0,s3,126d0 <__call_exitprocs+0x3a>
   126e4:	60a6                	ld	ra,72(sp)
   126e6:	6406                	ld	s0,64(sp)
   126e8:	74e2                	ld	s1,56(sp)
   126ea:	7942                	ld	s2,48(sp)
   126ec:	79a2                	ld	s3,40(sp)
   126ee:	7a02                	ld	s4,32(sp)
   126f0:	6ae2                	ld	s5,24(sp)
   126f2:	6b42                	ld	s6,16(sp)
   126f4:	6ba2                	ld	s7,8(sp)
   126f6:	6c02                	ld	s8,0(sp)
   126f8:	6161                	addi	sp,sp,80
   126fa:	8082                	ret
   126fc:	00892783          	lw	a5,8(s2)
   12700:	6498                	ld	a4,8(s1)
   12702:	37fd                	addiw	a5,a5,-1
   12704:	04878463          	beq	a5,s0,1274c <__call_exitprocs+0xb6>
   12708:	0004b423          	sd	zero,8(s1)
   1270c:	db61                	beqz	a4,126dc <__call_exitprocs+0x46>
   1270e:	31092783          	lw	a5,784(s2)
   12712:	008a96bb          	sllw	a3,s5,s0
   12716:	00892c03          	lw	s8,8(s2)
   1271a:	8ff5                	and	a5,a5,a3
   1271c:	2781                	sext.w	a5,a5
   1271e:	ef89                	bnez	a5,12738 <__call_exitprocs+0xa2>
   12720:	9702                	jalr	a4
   12722:	00892703          	lw	a4,8(s2)
   12726:	1f8a3783          	ld	a5,504(s4)
   1272a:	01871463          	bne	a4,s8,12732 <__call_exitprocs+0x9c>
   1272e:	faf907e3          	beq	s2,a5,126dc <__call_exitprocs+0x46>
   12732:	dbcd                	beqz	a5,126e4 <__call_exitprocs+0x4e>
   12734:	893e                	mv	s2,a5
   12736:	b769                	j	126c0 <__call_exitprocs+0x2a>
   12738:	31492783          	lw	a5,788(s2)
   1273c:	1084b583          	ld	a1,264(s1)
   12740:	8ff5                	and	a5,a5,a3
   12742:	2781                	sext.w	a5,a5
   12744:	e799                	bnez	a5,12752 <__call_exitprocs+0xbc>
   12746:	855a                	mv	a0,s6
   12748:	9702                	jalr	a4
   1274a:	bfe1                	j	12722 <__call_exitprocs+0x8c>
   1274c:	00892423          	sw	s0,8(s2)
   12750:	bf75                	j	1270c <__call_exitprocs+0x76>
   12752:	852e                	mv	a0,a1
   12754:	9702                	jalr	a4
   12756:	b7f1                	j	12722 <__call_exitprocs+0x8c>

0000000000012758 <__sflush_r>:
   12758:	01059783          	lh	a5,16(a1)
   1275c:	7179                	addi	sp,sp,-48
   1275e:	f022                	sd	s0,32(sp)
   12760:	e44e                	sd	s3,8(sp)
   12762:	f406                	sd	ra,40(sp)
   12764:	ec26                	sd	s1,24(sp)
   12766:	e84a                	sd	s2,16(sp)
   12768:	0087f693          	andi	a3,a5,8
   1276c:	842e                	mv	s0,a1
   1276e:	89aa                	mv	s3,a0
   12770:	eecd                	bnez	a3,1282a <__sflush_r+0xd2>
   12772:	6705                	lui	a4,0x1
   12774:	80070713          	addi	a4,a4,-2048 # 800 <register_fini-0xf8b0>
   12778:	4594                	lw	a3,8(a1)
   1277a:	8fd9                	or	a5,a5,a4
   1277c:	00f59823          	sh	a5,16(a1)
   12780:	10d05363          	blez	a3,12886 <__sflush_r+0x12e>
   12784:	6438                	ld	a4,72(s0)
   12786:	cb51                	beqz	a4,1281a <__sflush_r+0xc2>
   12788:	0009a483          	lw	s1,0(s3)
   1278c:	03079693          	slli	a3,a5,0x30
   12790:	0009a023          	sw	zero,0(s3)
   12794:	03379613          	slli	a2,a5,0x33
   12798:	780c                	ld	a1,48(s0)
   1279a:	92c1                	srli	a3,a3,0x30
   1279c:	0e064963          	bltz	a2,1288e <__sflush_r+0x136>
   127a0:	4601                	li	a2,0
   127a2:	4685                	li	a3,1
   127a4:	854e                	mv	a0,s3
   127a6:	9702                	jalr	a4
   127a8:	57fd                	li	a5,-1
   127aa:	862a                	mv	a2,a0
   127ac:	10f50963          	beq	a0,a5,128be <__sflush_r+0x166>
   127b0:	01045683          	lhu	a3,16(s0)
   127b4:	6438                	ld	a4,72(s0)
   127b6:	780c                	ld	a1,48(s0)
   127b8:	8a91                	andi	a3,a3,4
   127ba:	c699                	beqz	a3,127c8 <__sflush_r+0x70>
   127bc:	4414                	lw	a3,8(s0)
   127be:	6c3c                	ld	a5,88(s0)
   127c0:	8e15                	sub	a2,a2,a3
   127c2:	c399                	beqz	a5,127c8 <__sflush_r+0x70>
   127c4:	583c                	lw	a5,112(s0)
   127c6:	8e1d                	sub	a2,a2,a5
   127c8:	4681                	li	a3,0
   127ca:	854e                	mv	a0,s3
   127cc:	9702                	jalr	a4
   127ce:	57fd                	li	a5,-1
   127d0:	0cf51163          	bne	a0,a5,12892 <__sflush_r+0x13a>
   127d4:	0009a703          	lw	a4,0(s3)
   127d8:	01041783          	lh	a5,16(s0)
   127dc:	0e070f63          	beqz	a4,128da <__sflush_r+0x182>
   127e0:	46f5                	li	a3,29
   127e2:	00d70563          	beq	a4,a3,127ec <__sflush_r+0x94>
   127e6:	46d9                	li	a3,22
   127e8:	0ed71f63          	bne	a4,a3,128e6 <__sflush_r+0x18e>
   127ec:	6c14                	ld	a3,24(s0)
   127ee:	777d                	lui	a4,0xfffff
   127f0:	7ff70713          	addi	a4,a4,2047 # fffffffffffff7ff <__BSS_END__+0xfffffffffffc7147>
   127f4:	8ff9                	and	a5,a5,a4
   127f6:	00f41823          	sh	a5,16(s0)
   127fa:	00042423          	sw	zero,8(s0)
   127fe:	e014                	sd	a3,0(s0)
   12800:	6c2c                	ld	a1,88(s0)
   12802:	0099a023          	sw	s1,0(s3)
   12806:	c991                	beqz	a1,1281a <__sflush_r+0xc2>
   12808:	07440793          	addi	a5,s0,116
   1280c:	00f58563          	beq	a1,a5,12816 <__sflush_r+0xbe>
   12810:	854e                	mv	a0,s3
   12812:	4a8000ef          	jal	ra,12cba <_free_r>
   12816:	04043c23          	sd	zero,88(s0)
   1281a:	4501                	li	a0,0
   1281c:	70a2                	ld	ra,40(sp)
   1281e:	7402                	ld	s0,32(sp)
   12820:	64e2                	ld	s1,24(sp)
   12822:	6942                	ld	s2,16(sp)
   12824:	69a2                	ld	s3,8(sp)
   12826:	6145                	addi	sp,sp,48
   12828:	8082                	ret
   1282a:	0185b903          	ld	s2,24(a1)
   1282e:	fe0906e3          	beqz	s2,1281a <__sflush_r+0xc2>
   12832:	6184                	ld	s1,0(a1)
   12834:	03079713          	slli	a4,a5,0x30
   12838:	9341                	srli	a4,a4,0x30
   1283a:	8b0d                	andi	a4,a4,3
   1283c:	0125b023          	sd	s2,0(a1)
   12840:	412484bb          	subw	s1,s1,s2
   12844:	4781                	li	a5,0
   12846:	e311                	bnez	a4,1284a <__sflush_r+0xf2>
   12848:	519c                	lw	a5,32(a1)
   1284a:	c45c                	sw	a5,12(s0)
   1284c:	00904663          	bgtz	s1,12858 <__sflush_r+0x100>
   12850:	b7e9                	j	1281a <__sflush_r+0xc2>
   12852:	992a                	add	s2,s2,a0
   12854:	fc9053e3          	blez	s1,1281a <__sflush_r+0xc2>
   12858:	603c                	ld	a5,64(s0)
   1285a:	780c                	ld	a1,48(s0)
   1285c:	86a6                	mv	a3,s1
   1285e:	864a                	mv	a2,s2
   12860:	854e                	mv	a0,s3
   12862:	9782                	jalr	a5
   12864:	9c89                	subw	s1,s1,a0
   12866:	fea046e3          	bgtz	a0,12852 <__sflush_r+0xfa>
   1286a:	01045783          	lhu	a5,16(s0)
   1286e:	70a2                	ld	ra,40(sp)
   12870:	64e2                	ld	s1,24(sp)
   12872:	0407e793          	ori	a5,a5,64
   12876:	00f41823          	sh	a5,16(s0)
   1287a:	7402                	ld	s0,32(sp)
   1287c:	6942                	ld	s2,16(sp)
   1287e:	69a2                	ld	s3,8(sp)
   12880:	557d                	li	a0,-1
   12882:	6145                	addi	sp,sp,48
   12884:	8082                	ret
   12886:	59b8                	lw	a4,112(a1)
   12888:	eee04ee3          	bgtz	a4,12784 <__sflush_r+0x2c>
   1288c:	b779                	j	1281a <__sflush_r+0xc2>
   1288e:	6850                	ld	a2,144(s0)
   12890:	b725                	j	127b8 <__sflush_r+0x60>
   12892:	01045783          	lhu	a5,16(s0)
   12896:	777d                	lui	a4,0xfffff
   12898:	7ff70713          	addi	a4,a4,2047 # fffffffffffff7ff <__BSS_END__+0xfffffffffffc7147>
   1289c:	8ff9                	and	a5,a5,a4
   1289e:	6c14                	ld	a3,24(s0)
   128a0:	0107979b          	slliw	a5,a5,0x10
   128a4:	4107d79b          	sraiw	a5,a5,0x10
   128a8:	00f41823          	sh	a5,16(s0)
   128ac:	00042423          	sw	zero,8(s0)
   128b0:	e014                	sd	a3,0(s0)
   128b2:	03379713          	slli	a4,a5,0x33
   128b6:	f40755e3          	bgez	a4,12800 <__sflush_r+0xa8>
   128ba:	e848                	sd	a0,144(s0)
   128bc:	b791                	j	12800 <__sflush_r+0xa8>
   128be:	0009a783          	lw	a5,0(s3)
   128c2:	ee0787e3          	beqz	a5,127b0 <__sflush_r+0x58>
   128c6:	4775                	li	a4,29
   128c8:	00e78563          	beq	a5,a4,128d2 <__sflush_r+0x17a>
   128cc:	4759                	li	a4,22
   128ce:	f8e79ee3          	bne	a5,a4,1286a <__sflush_r+0x112>
   128d2:	0099a023          	sw	s1,0(s3)
   128d6:	4501                	li	a0,0
   128d8:	b791                	j	1281c <__sflush_r+0xc4>
   128da:	777d                	lui	a4,0xfffff
   128dc:	7ff70713          	addi	a4,a4,2047 # fffffffffffff7ff <__BSS_END__+0xfffffffffffc7147>
   128e0:	6c14                	ld	a3,24(s0)
   128e2:	8ff9                	and	a5,a5,a4
   128e4:	b7d1                	j	128a8 <__sflush_r+0x150>
   128e6:	0407e793          	ori	a5,a5,64
   128ea:	00f41823          	sh	a5,16(s0)
   128ee:	557d                	li	a0,-1
   128f0:	b735                	j	1281c <__sflush_r+0xc4>

00000000000128f2 <_fflush_r>:
   128f2:	1101                	addi	sp,sp,-32
   128f4:	e822                	sd	s0,16(sp)
   128f6:	ec06                	sd	ra,24(sp)
   128f8:	842a                	mv	s0,a0
   128fa:	c119                	beqz	a0,12900 <_fflush_r+0xe>
   128fc:	493c                	lw	a5,80(a0)
   128fe:	cb89                	beqz	a5,12910 <_fflush_r+0x1e>
   12900:	01059783          	lh	a5,16(a1)
   12904:	ef89                	bnez	a5,1291e <_fflush_r+0x2c>
   12906:	60e2                	ld	ra,24(sp)
   12908:	6442                	ld	s0,16(sp)
   1290a:	4501                	li	a0,0
   1290c:	6105                	addi	sp,sp,32
   1290e:	8082                	ret
   12910:	e42e                	sd	a1,8(sp)
   12912:	276000ef          	jal	ra,12b88 <__sinit>
   12916:	65a2                	ld	a1,8(sp)
   12918:	01059783          	lh	a5,16(a1)
   1291c:	d7ed                	beqz	a5,12906 <_fflush_r+0x14>
   1291e:	8522                	mv	a0,s0
   12920:	6442                	ld	s0,16(sp)
   12922:	60e2                	ld	ra,24(sp)
   12924:	6105                	addi	sp,sp,32
   12926:	bd0d                	j	12758 <__sflush_r>

0000000000012928 <fflush>:
   12928:	85aa                	mv	a1,a0
   1292a:	c501                	beqz	a0,12932 <fflush+0xa>
   1292c:	8601b503          	ld	a0,-1952(gp) # 1f588 <_impure_ptr>
   12930:	b7c9                	j	128f2 <_fflush_r>
   12932:	00000597          	auipc	a1,0x0
   12936:	fc058593          	addi	a1,a1,-64 # 128f2 <_fflush_r>
   1293a:	8301b503          	ld	a0,-2000(gp) # 1f558 <_global_impure_ptr>
   1293e:	1790006f          	j	132b6 <_fwalk_reent>

0000000000012942 <__fp_lock>:
   12942:	4501                	li	a0,0
   12944:	8082                	ret

0000000000012946 <_cleanup_r>:
   12946:	00007597          	auipc	a1,0x7
   1294a:	37858593          	addi	a1,a1,888 # 19cbe <_fclose_r>
   1294e:	1690006f          	j	132b6 <_fwalk_reent>

0000000000012952 <__sinit.part.0>:
   12952:	7139                	addi	sp,sp,-64
   12954:	fc06                	sd	ra,56(sp)
   12956:	f822                	sd	s0,48(sp)
   12958:	f426                	sd	s1,40(sp)
   1295a:	f04a                	sd	s2,32(sp)
   1295c:	ec4e                	sd	s3,24(sp)
   1295e:	e852                	sd	s4,16(sp)
   12960:	e456                	sd	s5,8(sp)
   12962:	e05a                	sd	s6,0(sp)
   12964:	6500                	ld	s0,8(a0)
   12966:	00000717          	auipc	a4,0x0
   1296a:	fe070713          	addi	a4,a4,-32 # 12946 <_cleanup_r>
   1296e:	ed38                	sd	a4,88(a0)
   12970:	53850793          	addi	a5,a0,1336
   12974:	470d                	li	a4,3
   12976:	52e52423          	sw	a4,1320(a0)
   1297a:	52f53823          	sd	a5,1328(a0)
   1297e:	52053023          	sd	zero,1312(a0)
   12982:	4791                	li	a5,4
   12984:	892a                	mv	s2,a0
   12986:	c81c                	sw	a5,16(s0)
   12988:	4621                	li	a2,8
   1298a:	4581                	li	a1,0
   1298c:	0a042623          	sw	zero,172(s0)
   12990:	00043023          	sd	zero,0(s0)
   12994:	00043423          	sd	zero,8(s0)
   12998:	00043c23          	sd	zero,24(s0)
   1299c:	02042023          	sw	zero,32(s0)
   129a0:	02042423          	sw	zero,40(s0)
   129a4:	0a440513          	addi	a0,s0,164
   129a8:	d31fd0ef          	jal	ra,106d8 <memset>
   129ac:	01093483          	ld	s1,16(s2)
   129b0:	00004b17          	auipc	s6,0x4
   129b4:	594b0b13          	addi	s6,s6,1428 # 16f44 <__sread>
   129b8:	00004a97          	auipc	s5,0x4
   129bc:	5c8a8a93          	addi	s5,s5,1480 # 16f80 <__swrite>
   129c0:	00004a17          	auipc	s4,0x4
   129c4:	614a0a13          	addi	s4,s4,1556 # 16fd4 <__sseek>
   129c8:	00004997          	auipc	s3,0x4
   129cc:	64e98993          	addi	s3,s3,1614 # 17016 <__sclose>
   129d0:	67c1                	lui	a5,0x10
   129d2:	03643c23          	sd	s6,56(s0)
   129d6:	05543023          	sd	s5,64(s0)
   129da:	05443423          	sd	s4,72(s0)
   129de:	05343823          	sd	s3,80(s0)
   129e2:	f800                	sd	s0,48(s0)
   129e4:	07a5                	addi	a5,a5,9
   129e6:	c89c                	sw	a5,16(s1)
   129e8:	4621                	li	a2,8
   129ea:	4581                	li	a1,0
   129ec:	0a04a623          	sw	zero,172(s1)
   129f0:	0004b023          	sd	zero,0(s1)
   129f4:	0004b423          	sd	zero,8(s1)
   129f8:	0004bc23          	sd	zero,24(s1)
   129fc:	0204a023          	sw	zero,32(s1)
   12a00:	0204a423          	sw	zero,40(s1)
   12a04:	0a448513          	addi	a0,s1,164
   12a08:	cd1fd0ef          	jal	ra,106d8 <memset>
   12a0c:	01893403          	ld	s0,24(s2)
   12a10:	000207b7          	lui	a5,0x20
   12a14:	0364bc23          	sd	s6,56(s1)
   12a18:	0554b023          	sd	s5,64(s1)
   12a1c:	0544b423          	sd	s4,72(s1)
   12a20:	0534b823          	sd	s3,80(s1)
   12a24:	f884                	sd	s1,48(s1)
   12a26:	07c9                	addi	a5,a5,18
   12a28:	c81c                	sw	a5,16(s0)
   12a2a:	0a042623          	sw	zero,172(s0)
   12a2e:	00043023          	sd	zero,0(s0)
   12a32:	00043423          	sd	zero,8(s0)
   12a36:	00043c23          	sd	zero,24(s0)
   12a3a:	02042023          	sw	zero,32(s0)
   12a3e:	02042423          	sw	zero,40(s0)
   12a42:	0a440513          	addi	a0,s0,164
   12a46:	4621                	li	a2,8
   12a48:	4581                	li	a1,0
   12a4a:	c8ffd0ef          	jal	ra,106d8 <memset>
   12a4e:	70e2                	ld	ra,56(sp)
   12a50:	03643c23          	sd	s6,56(s0)
   12a54:	05543023          	sd	s5,64(s0)
   12a58:	05443423          	sd	s4,72(s0)
   12a5c:	05343823          	sd	s3,80(s0)
   12a60:	f800                	sd	s0,48(s0)
   12a62:	7442                	ld	s0,48(sp)
   12a64:	4785                	li	a5,1
   12a66:	04f92823          	sw	a5,80(s2)
   12a6a:	74a2                	ld	s1,40(sp)
   12a6c:	7902                	ld	s2,32(sp)
   12a6e:	69e2                	ld	s3,24(sp)
   12a70:	6a42                	ld	s4,16(sp)
   12a72:	6aa2                	ld	s5,8(sp)
   12a74:	6b02                	ld	s6,0(sp)
   12a76:	6121                	addi	sp,sp,64
   12a78:	8082                	ret

0000000000012a7a <__fp_unlock>:
   12a7a:	4501                	li	a0,0
   12a7c:	8082                	ret

0000000000012a7e <__sfmoreglue>:
   12a7e:	1101                	addi	sp,sp,-32
   12a80:	e426                	sd	s1,8(sp)
   12a82:	0b000613          	li	a2,176
   12a86:	fff5849b          	addiw	s1,a1,-1
   12a8a:	02c484b3          	mul	s1,s1,a2
   12a8e:	e04a                	sd	s2,0(sp)
   12a90:	892e                	mv	s2,a1
   12a92:	e822                	sd	s0,16(sp)
   12a94:	ec06                	sd	ra,24(sp)
   12a96:	0c848593          	addi	a1,s1,200
   12a9a:	315020ef          	jal	ra,155ae <_malloc_r>
   12a9e:	842a                	mv	s0,a0
   12aa0:	cd01                	beqz	a0,12ab8 <__sfmoreglue+0x3a>
   12aa2:	0561                	addi	a0,a0,24
   12aa4:	00043023          	sd	zero,0(s0)
   12aa8:	01242423          	sw	s2,8(s0)
   12aac:	e808                	sd	a0,16(s0)
   12aae:	0b048613          	addi	a2,s1,176
   12ab2:	4581                	li	a1,0
   12ab4:	c25fd0ef          	jal	ra,106d8 <memset>
   12ab8:	60e2                	ld	ra,24(sp)
   12aba:	8522                	mv	a0,s0
   12abc:	6442                	ld	s0,16(sp)
   12abe:	64a2                	ld	s1,8(sp)
   12ac0:	6902                	ld	s2,0(sp)
   12ac2:	6105                	addi	sp,sp,32
   12ac4:	8082                	ret

0000000000012ac6 <__sfp>:
   12ac6:	7179                	addi	sp,sp,-48
   12ac8:	ec26                	sd	s1,24(sp)
   12aca:	8301b483          	ld	s1,-2000(gp) # 1f558 <_global_impure_ptr>
   12ace:	48bc                	lw	a5,80(s1)
   12ad0:	e84a                	sd	s2,16(sp)
   12ad2:	f406                	sd	ra,40(sp)
   12ad4:	f022                	sd	s0,32(sp)
   12ad6:	e44e                	sd	s3,8(sp)
   12ad8:	892a                	mv	s2,a0
   12ada:	c3c9                	beqz	a5,12b5c <__sfp+0x96>
   12adc:	52048493          	addi	s1,s1,1312
   12ae0:	0b000993          	li	s3,176
   12ae4:	449c                	lw	a5,8(s1)
   12ae6:	6880                	ld	s0,16(s1)
   12ae8:	06f05663          	blez	a5,12b54 <__sfp+0x8e>
   12aec:	37fd                	addiw	a5,a5,-1
   12aee:	1782                	slli	a5,a5,0x20
   12af0:	9381                	srli	a5,a5,0x20
   12af2:	0785                	addi	a5,a5,1
   12af4:	033787b3          	mul	a5,a5,s3
   12af8:	97a2                	add	a5,a5,s0
   12afa:	a029                	j	12b04 <__sfp+0x3e>
   12afc:	0b040413          	addi	s0,s0,176
   12b00:	04878a63          	beq	a5,s0,12b54 <__sfp+0x8e>
   12b04:	01041703          	lh	a4,16(s0)
   12b08:	fb75                	bnez	a4,12afc <__sfp+0x36>
   12b0a:	77c1                	lui	a5,0xffff0
   12b0c:	0785                	addi	a5,a5,1
   12b0e:	0a042623          	sw	zero,172(s0)
   12b12:	00043023          	sd	zero,0(s0)
   12b16:	00043423          	sd	zero,8(s0)
   12b1a:	c81c                	sw	a5,16(s0)
   12b1c:	00043c23          	sd	zero,24(s0)
   12b20:	02042023          	sw	zero,32(s0)
   12b24:	02042423          	sw	zero,40(s0)
   12b28:	4621                	li	a2,8
   12b2a:	4581                	li	a1,0
   12b2c:	0a440513          	addi	a0,s0,164
   12b30:	ba9fd0ef          	jal	ra,106d8 <memset>
   12b34:	04043c23          	sd	zero,88(s0)
   12b38:	06042023          	sw	zero,96(s0)
   12b3c:	06043c23          	sd	zero,120(s0)
   12b40:	08042023          	sw	zero,128(s0)
   12b44:	70a2                	ld	ra,40(sp)
   12b46:	8522                	mv	a0,s0
   12b48:	7402                	ld	s0,32(sp)
   12b4a:	64e2                	ld	s1,24(sp)
   12b4c:	6942                	ld	s2,16(sp)
   12b4e:	69a2                	ld	s3,8(sp)
   12b50:	6145                	addi	sp,sp,48
   12b52:	8082                	ret
   12b54:	6080                	ld	s0,0(s1)
   12b56:	c419                	beqz	s0,12b64 <__sfp+0x9e>
   12b58:	84a2                	mv	s1,s0
   12b5a:	b769                	j	12ae4 <__sfp+0x1e>
   12b5c:	8526                	mv	a0,s1
   12b5e:	df5ff0ef          	jal	ra,12952 <__sinit.part.0>
   12b62:	bfad                	j	12adc <__sfp+0x16>
   12b64:	4591                	li	a1,4
   12b66:	854a                	mv	a0,s2
   12b68:	f17ff0ef          	jal	ra,12a7e <__sfmoreglue>
   12b6c:	e088                	sd	a0,0(s1)
   12b6e:	842a                	mv	s0,a0
   12b70:	f565                	bnez	a0,12b58 <__sfp+0x92>
   12b72:	47b1                	li	a5,12
   12b74:	00f92023          	sw	a5,0(s2)
   12b78:	b7f1                	j	12b44 <__sfp+0x7e>

0000000000012b7a <_cleanup>:
   12b7a:	00007597          	auipc	a1,0x7
   12b7e:	14458593          	addi	a1,a1,324 # 19cbe <_fclose_r>
   12b82:	8301b503          	ld	a0,-2000(gp) # 1f558 <_global_impure_ptr>
   12b86:	af05                	j	132b6 <_fwalk_reent>

0000000000012b88 <__sinit>:
   12b88:	493c                	lw	a5,80(a0)
   12b8a:	c391                	beqz	a5,12b8e <__sinit+0x6>
   12b8c:	8082                	ret
   12b8e:	b3d1                	j	12952 <__sinit.part.0>

0000000000012b90 <__sfp_lock_acquire>:
   12b90:	8082                	ret

0000000000012b92 <__sfp_lock_release>:
   12b92:	8082                	ret

0000000000012b94 <__sinit_lock_acquire>:
   12b94:	8082                	ret

0000000000012b96 <__sinit_lock_release>:
   12b96:	8082                	ret

0000000000012b98 <__fp_lock_all>:
   12b98:	00000597          	auipc	a1,0x0
   12b9c:	daa58593          	addi	a1,a1,-598 # 12942 <__fp_lock>
   12ba0:	8601b503          	ld	a0,-1952(gp) # 1f588 <_impure_ptr>
   12ba4:	ad41                	j	13234 <_fwalk>

0000000000012ba6 <__fp_unlock_all>:
   12ba6:	00000597          	auipc	a1,0x0
   12baa:	ed458593          	addi	a1,a1,-300 # 12a7a <__fp_unlock>
   12bae:	8601b503          	ld	a0,-1952(gp) # 1f588 <_impure_ptr>
   12bb2:	a549                	j	13234 <_fwalk>

0000000000012bb4 <__libc_fini_array>:
   12bb4:	1101                	addi	sp,sp,-32
   12bb6:	e822                	sd	s0,16(sp)
   12bb8:	0000b797          	auipc	a5,0xb
   12bbc:	7d078793          	addi	a5,a5,2000 # 1e388 <__fini_array_end>
   12bc0:	0000b417          	auipc	s0,0xb
   12bc4:	7c040413          	addi	s0,s0,1984 # 1e380 <__init_array_end>
   12bc8:	8f81                	sub	a5,a5,s0
   12bca:	e426                	sd	s1,8(sp)
   12bcc:	ec06                	sd	ra,24(sp)
   12bce:	4037d493          	srai	s1,a5,0x3
   12bd2:	c881                	beqz	s1,12be2 <__libc_fini_array+0x2e>
   12bd4:	17e1                	addi	a5,a5,-8
   12bd6:	943e                	add	s0,s0,a5
   12bd8:	601c                	ld	a5,0(s0)
   12bda:	14fd                	addi	s1,s1,-1
   12bdc:	1461                	addi	s0,s0,-8
   12bde:	9782                	jalr	a5
   12be0:	fce5                	bnez	s1,12bd8 <__libc_fini_array+0x24>
   12be2:	60e2                	ld	ra,24(sp)
   12be4:	6442                	ld	s0,16(sp)
   12be6:	64a2                	ld	s1,8(sp)
   12be8:	6105                	addi	sp,sp,32
   12bea:	8082                	ret

0000000000012bec <_malloc_trim_r>:
   12bec:	7179                	addi	sp,sp,-48
   12bee:	f022                	sd	s0,32(sp)
   12bf0:	ec26                	sd	s1,24(sp)
   12bf2:	e84a                	sd	s2,16(sp)
   12bf4:	e44e                	sd	s3,8(sp)
   12bf6:	e052                	sd	s4,0(sp)
   12bf8:	89ae                	mv	s3,a1
   12bfa:	f406                	sd	ra,40(sp)
   12bfc:	0000ca17          	auipc	s4,0xc
   12c00:	11ca0a13          	addi	s4,s4,284 # 1ed18 <__malloc_av_>
   12c04:	892a                	mv	s2,a0
   12c06:	26a030ef          	jal	ra,15e70 <__malloc_lock>
   12c0a:	010a3703          	ld	a4,16(s4)
   12c0e:	6785                	lui	a5,0x1
   12c10:	fdf78413          	addi	s0,a5,-33 # fdf <register_fini-0xf0d1>
   12c14:	6704                	ld	s1,8(a4)
   12c16:	41340433          	sub	s0,s0,s3
   12c1a:	98f1                	andi	s1,s1,-4
   12c1c:	9426                	add	s0,s0,s1
   12c1e:	8031                	srli	s0,s0,0xc
   12c20:	147d                	addi	s0,s0,-1
   12c22:	0432                	slli	s0,s0,0xc
   12c24:	00f44b63          	blt	s0,a5,12c3a <_malloc_trim_r+0x4e>
   12c28:	4581                	li	a1,0
   12c2a:	854a                	mv	a0,s2
   12c2c:	1d4040ef          	jal	ra,16e00 <_sbrk_r>
   12c30:	010a3783          	ld	a5,16(s4)
   12c34:	97a6                	add	a5,a5,s1
   12c36:	00f50e63          	beq	a0,a5,12c52 <_malloc_trim_r+0x66>
   12c3a:	854a                	mv	a0,s2
   12c3c:	236030ef          	jal	ra,15e72 <__malloc_unlock>
   12c40:	70a2                	ld	ra,40(sp)
   12c42:	7402                	ld	s0,32(sp)
   12c44:	64e2                	ld	s1,24(sp)
   12c46:	6942                	ld	s2,16(sp)
   12c48:	69a2                	ld	s3,8(sp)
   12c4a:	6a02                	ld	s4,0(sp)
   12c4c:	4501                	li	a0,0
   12c4e:	6145                	addi	sp,sp,48
   12c50:	8082                	ret
   12c52:	408005b3          	neg	a1,s0
   12c56:	854a                	mv	a0,s2
   12c58:	1a8040ef          	jal	ra,16e00 <_sbrk_r>
   12c5c:	57fd                	li	a5,-1
   12c5e:	02f50a63          	beq	a0,a5,12c92 <_malloc_trim_r+0xa6>
   12c62:	0e018713          	addi	a4,gp,224 # 1fe08 <__malloc_current_mallinfo>
   12c66:	431c                	lw	a5,0(a4)
   12c68:	010a3683          	ld	a3,16(s4)
   12c6c:	8c81                	sub	s1,s1,s0
   12c6e:	0014e493          	ori	s1,s1,1
   12c72:	4087843b          	subw	s0,a5,s0
   12c76:	854a                	mv	a0,s2
   12c78:	e684                	sd	s1,8(a3)
   12c7a:	c300                	sw	s0,0(a4)
   12c7c:	1f6030ef          	jal	ra,15e72 <__malloc_unlock>
   12c80:	70a2                	ld	ra,40(sp)
   12c82:	7402                	ld	s0,32(sp)
   12c84:	64e2                	ld	s1,24(sp)
   12c86:	6942                	ld	s2,16(sp)
   12c88:	69a2                	ld	s3,8(sp)
   12c8a:	6a02                	ld	s4,0(sp)
   12c8c:	4505                	li	a0,1
   12c8e:	6145                	addi	sp,sp,48
   12c90:	8082                	ret
   12c92:	4581                	li	a1,0
   12c94:	854a                	mv	a0,s2
   12c96:	16a040ef          	jal	ra,16e00 <_sbrk_r>
   12c9a:	010a3703          	ld	a4,16(s4)
   12c9e:	46fd                	li	a3,31
   12ca0:	40e507b3          	sub	a5,a0,a4
   12ca4:	f8f6dbe3          	bge	a3,a5,12c3a <_malloc_trim_r+0x4e>
   12ca8:	8681b683          	ld	a3,-1944(gp) # 1f590 <__malloc_sbrk_base>
   12cac:	8d15                	sub	a0,a0,a3
   12cae:	0017e793          	ori	a5,a5,1
   12cb2:	0ea1a023          	sw	a0,224(gp) # 1fe08 <__malloc_current_mallinfo>
   12cb6:	e71c                	sd	a5,8(a4)
   12cb8:	b749                	j	12c3a <_malloc_trim_r+0x4e>

0000000000012cba <_free_r>:
   12cba:	c5f5                	beqz	a1,12da6 <_free_r+0xec>
   12cbc:	1101                	addi	sp,sp,-32
   12cbe:	e822                	sd	s0,16(sp)
   12cc0:	e426                	sd	s1,8(sp)
   12cc2:	842e                	mv	s0,a1
   12cc4:	84aa                	mv	s1,a0
   12cc6:	ec06                	sd	ra,24(sp)
   12cc8:	1a8030ef          	jal	ra,15e70 <__malloc_lock>
   12ccc:	ff843583          	ld	a1,-8(s0)
   12cd0:	ff040713          	addi	a4,s0,-16
   12cd4:	0000c517          	auipc	a0,0xc
   12cd8:	04450513          	addi	a0,a0,68 # 1ed18 <__malloc_av_>
   12cdc:	ffe5f793          	andi	a5,a1,-2
   12ce0:	00f70633          	add	a2,a4,a5
   12ce4:	6614                	ld	a3,8(a2)
   12ce6:	01053803          	ld	a6,16(a0)
   12cea:	9af1                	andi	a3,a3,-4
   12cec:	14c80063          	beq	a6,a2,12e2c <_free_r+0x172>
   12cf0:	e614                	sd	a3,8(a2)
   12cf2:	8985                	andi	a1,a1,1
   12cf4:	00d60833          	add	a6,a2,a3
   12cf8:	e1c1                	bnez	a1,12d78 <_free_r+0xbe>
   12cfa:	ff043303          	ld	t1,-16(s0)
   12cfe:	00883583          	ld	a1,8(a6)
   12d02:	0000c897          	auipc	a7,0xc
   12d06:	02688893          	addi	a7,a7,38 # 1ed28 <__malloc_av_+0x10>
   12d0a:	40670733          	sub	a4,a4,t1
   12d0e:	01073803          	ld	a6,16(a4)
   12d12:	979a                	add	a5,a5,t1
   12d14:	8985                	andi	a1,a1,1
   12d16:	0f180863          	beq	a6,a7,12e06 <_free_r+0x14c>
   12d1a:	01873303          	ld	t1,24(a4)
   12d1e:	00683c23          	sd	t1,24(a6)
   12d22:	01033823          	sd	a6,16(t1)
   12d26:	14058d63          	beqz	a1,12e80 <_free_r+0x1c6>
   12d2a:	0017e693          	ori	a3,a5,1
   12d2e:	e714                	sd	a3,8(a4)
   12d30:	e21c                	sd	a5,0(a2)
   12d32:	1ff00693          	li	a3,511
   12d36:	08f6e263          	bltu	a3,a5,12dba <_free_r+0x100>
   12d3a:	838d                	srli	a5,a5,0x3
   12d3c:	0017869b          	addiw	a3,a5,1
   12d40:	0016969b          	slliw	a3,a3,0x1
   12d44:	068e                	slli	a3,a3,0x3
   12d46:	00853803          	ld	a6,8(a0)
   12d4a:	96aa                	add	a3,a3,a0
   12d4c:	628c                	ld	a1,0(a3)
   12d4e:	4027d61b          	sraiw	a2,a5,0x2
   12d52:	4785                	li	a5,1
   12d54:	00c797b3          	sll	a5,a5,a2
   12d58:	0107e7b3          	or	a5,a5,a6
   12d5c:	ff068613          	addi	a2,a3,-16
   12d60:	ef10                	sd	a2,24(a4)
   12d62:	eb0c                	sd	a1,16(a4)
   12d64:	e51c                	sd	a5,8(a0)
   12d66:	e298                	sd	a4,0(a3)
   12d68:	ed98                	sd	a4,24(a1)
   12d6a:	6442                	ld	s0,16(sp)
   12d6c:	60e2                	ld	ra,24(sp)
   12d6e:	8526                	mv	a0,s1
   12d70:	64a2                	ld	s1,8(sp)
   12d72:	6105                	addi	sp,sp,32
   12d74:	0fe0306f          	j	15e72 <__malloc_unlock>
   12d78:	00883583          	ld	a1,8(a6)
   12d7c:	8985                	andi	a1,a1,1
   12d7e:	e58d                	bnez	a1,12da8 <_free_r+0xee>
   12d80:	97b6                	add	a5,a5,a3
   12d82:	0000c897          	auipc	a7,0xc
   12d86:	fa688893          	addi	a7,a7,-90 # 1ed28 <__malloc_av_+0x10>
   12d8a:	6a14                	ld	a3,16(a2)
   12d8c:	0017e813          	ori	a6,a5,1
   12d90:	00f705b3          	add	a1,a4,a5
   12d94:	11168063          	beq	a3,a7,12e94 <_free_r+0x1da>
   12d98:	6e10                	ld	a2,24(a2)
   12d9a:	ee90                	sd	a2,24(a3)
   12d9c:	ea14                	sd	a3,16(a2)
   12d9e:	01073423          	sd	a6,8(a4)
   12da2:	e19c                	sd	a5,0(a1)
   12da4:	b779                	j	12d32 <_free_r+0x78>
   12da6:	8082                	ret
   12da8:	0017e693          	ori	a3,a5,1
   12dac:	fed43c23          	sd	a3,-8(s0)
   12db0:	e21c                	sd	a5,0(a2)
   12db2:	1ff00693          	li	a3,511
   12db6:	f8f6f2e3          	bgeu	a3,a5,12d3a <_free_r+0x80>
   12dba:	0097d693          	srli	a3,a5,0x9
   12dbe:	4611                	li	a2,4
   12dc0:	08d66f63          	bltu	a2,a3,12e5e <_free_r+0x1a4>
   12dc4:	0067d693          	srli	a3,a5,0x6
   12dc8:	0396859b          	addiw	a1,a3,57
   12dcc:	0015959b          	slliw	a1,a1,0x1
   12dd0:	0386861b          	addiw	a2,a3,56
   12dd4:	058e                	slli	a1,a1,0x3
   12dd6:	95aa                	add	a1,a1,a0
   12dd8:	6194                	ld	a3,0(a1)
   12dda:	15c1                	addi	a1,a1,-16
   12ddc:	0cd58663          	beq	a1,a3,12ea8 <_free_r+0x1ee>
   12de0:	6690                	ld	a2,8(a3)
   12de2:	9a71                	andi	a2,a2,-4
   12de4:	00c7f563          	bgeu	a5,a2,12dee <_free_r+0x134>
   12de8:	6a94                	ld	a3,16(a3)
   12dea:	fed59be3          	bne	a1,a3,12de0 <_free_r+0x126>
   12dee:	6e8c                	ld	a1,24(a3)
   12df0:	ef0c                	sd	a1,24(a4)
   12df2:	eb14                	sd	a3,16(a4)
   12df4:	6442                	ld	s0,16(sp)
   12df6:	60e2                	ld	ra,24(sp)
   12df8:	e998                	sd	a4,16(a1)
   12dfa:	8526                	mv	a0,s1
   12dfc:	64a2                	ld	s1,8(sp)
   12dfe:	ee98                	sd	a4,24(a3)
   12e00:	6105                	addi	sp,sp,32
   12e02:	0700306f          	j	15e72 <__malloc_unlock>
   12e06:	0e059d63          	bnez	a1,12f00 <_free_r+0x246>
   12e0a:	6e0c                	ld	a1,24(a2)
   12e0c:	6a10                	ld	a2,16(a2)
   12e0e:	97b6                	add	a5,a5,a3
   12e10:	6442                	ld	s0,16(sp)
   12e12:	ee0c                	sd	a1,24(a2)
   12e14:	e990                	sd	a2,16(a1)
   12e16:	0017e693          	ori	a3,a5,1
   12e1a:	60e2                	ld	ra,24(sp)
   12e1c:	e714                	sd	a3,8(a4)
   12e1e:	8526                	mv	a0,s1
   12e20:	973e                	add	a4,a4,a5
   12e22:	64a2                	ld	s1,8(sp)
   12e24:	e31c                	sd	a5,0(a4)
   12e26:	6105                	addi	sp,sp,32
   12e28:	04a0306f          	j	15e72 <__malloc_unlock>
   12e2c:	8985                	andi	a1,a1,1
   12e2e:	97b6                	add	a5,a5,a3
   12e30:	e989                	bnez	a1,12e42 <_free_r+0x188>
   12e32:	ff043583          	ld	a1,-16(s0)
   12e36:	8f0d                	sub	a4,a4,a1
   12e38:	6f14                	ld	a3,24(a4)
   12e3a:	6b10                	ld	a2,16(a4)
   12e3c:	97ae                	add	a5,a5,a1
   12e3e:	ee14                	sd	a3,24(a2)
   12e40:	ea90                	sd	a2,16(a3)
   12e42:	0017e693          	ori	a3,a5,1
   12e46:	e714                	sd	a3,8(a4)
   12e48:	e918                	sd	a4,16(a0)
   12e4a:	8701b703          	ld	a4,-1936(gp) # 1f598 <__malloc_trim_threshold>
   12e4e:	f0e7eee3          	bltu	a5,a4,12d6a <_free_r+0xb0>
   12e52:	8981b583          	ld	a1,-1896(gp) # 1f5c0 <__malloc_top_pad>
   12e56:	8526                	mv	a0,s1
   12e58:	d95ff0ef          	jal	ra,12bec <_malloc_trim_r>
   12e5c:	b739                	j	12d6a <_free_r+0xb0>
   12e5e:	4651                	li	a2,20
   12e60:	02d67263          	bgeu	a2,a3,12e84 <_free_r+0x1ca>
   12e64:	05400613          	li	a2,84
   12e68:	04d66b63          	bltu	a2,a3,12ebe <_free_r+0x204>
   12e6c:	00c7d693          	srli	a3,a5,0xc
   12e70:	06f6859b          	addiw	a1,a3,111
   12e74:	0015959b          	slliw	a1,a1,0x1
   12e78:	06e6861b          	addiw	a2,a3,110
   12e7c:	058e                	slli	a1,a1,0x3
   12e7e:	bfa1                	j	12dd6 <_free_r+0x11c>
   12e80:	97b6                	add	a5,a5,a3
   12e82:	b721                	j	12d8a <_free_r+0xd0>
   12e84:	05c6859b          	addiw	a1,a3,92
   12e88:	0015959b          	slliw	a1,a1,0x1
   12e8c:	05b6861b          	addiw	a2,a3,91
   12e90:	058e                	slli	a1,a1,0x3
   12e92:	b791                	j	12dd6 <_free_r+0x11c>
   12e94:	f518                	sd	a4,40(a0)
   12e96:	f118                	sd	a4,32(a0)
   12e98:	01173c23          	sd	a7,24(a4)
   12e9c:	01173823          	sd	a7,16(a4)
   12ea0:	01073423          	sd	a6,8(a4)
   12ea4:	e19c                	sd	a5,0(a1)
   12ea6:	b5d1                	j	12d6a <_free_r+0xb0>
   12ea8:	00853803          	ld	a6,8(a0)
   12eac:	4026561b          	sraiw	a2,a2,0x2
   12eb0:	4785                	li	a5,1
   12eb2:	00c79633          	sll	a2,a5,a2
   12eb6:	01066633          	or	a2,a2,a6
   12eba:	e510                	sd	a2,8(a0)
   12ebc:	bf15                	j	12df0 <_free_r+0x136>
   12ebe:	15400613          	li	a2,340
   12ec2:	00d66c63          	bltu	a2,a3,12eda <_free_r+0x220>
   12ec6:	00f7d693          	srli	a3,a5,0xf
   12eca:	0786859b          	addiw	a1,a3,120
   12ece:	0015959b          	slliw	a1,a1,0x1
   12ed2:	0776861b          	addiw	a2,a3,119
   12ed6:	058e                	slli	a1,a1,0x3
   12ed8:	bdfd                	j	12dd6 <_free_r+0x11c>
   12eda:	55400613          	li	a2,1364
   12ede:	00d66c63          	bltu	a2,a3,12ef6 <_free_r+0x23c>
   12ee2:	0127d693          	srli	a3,a5,0x12
   12ee6:	07d6859b          	addiw	a1,a3,125
   12eea:	0015959b          	slliw	a1,a1,0x1
   12eee:	07c6861b          	addiw	a2,a3,124
   12ef2:	058e                	slli	a1,a1,0x3
   12ef4:	b5cd                	j	12dd6 <_free_r+0x11c>
   12ef6:	7f000593          	li	a1,2032
   12efa:	07e00613          	li	a2,126
   12efe:	bde1                	j	12dd6 <_free_r+0x11c>
   12f00:	0017e693          	ori	a3,a5,1
   12f04:	e714                	sd	a3,8(a4)
   12f06:	e21c                	sd	a5,0(a2)
   12f08:	b58d                	j	12d6a <_free_r+0xb0>

0000000000012f0a <__sfvwrite_r>:
   12f0a:	6a1c                	ld	a5,16(a2)
   12f0c:	1a078c63          	beqz	a5,130c4 <__sfvwrite_r+0x1ba>
   12f10:	0105d783          	lhu	a5,16(a1)
   12f14:	711d                	addi	sp,sp,-96
   12f16:	e8a2                	sd	s0,80(sp)
   12f18:	f852                	sd	s4,48(sp)
   12f1a:	f456                	sd	s5,40(sp)
   12f1c:	ec86                	sd	ra,88(sp)
   12f1e:	e4a6                	sd	s1,72(sp)
   12f20:	e0ca                	sd	s2,64(sp)
   12f22:	fc4e                	sd	s3,56(sp)
   12f24:	f05a                	sd	s6,32(sp)
   12f26:	ec5e                	sd	s7,24(sp)
   12f28:	e862                	sd	s8,16(sp)
   12f2a:	e466                	sd	s9,8(sp)
   12f2c:	e06a                	sd	s10,0(sp)
   12f2e:	0087f713          	andi	a4,a5,8
   12f32:	8a32                	mv	s4,a2
   12f34:	8aaa                	mv	s5,a0
   12f36:	842e                	mv	s0,a1
   12f38:	c325                	beqz	a4,12f98 <__sfvwrite_r+0x8e>
   12f3a:	6d98                	ld	a4,24(a1)
   12f3c:	cf31                	beqz	a4,12f98 <__sfvwrite_r+0x8e>
   12f3e:	0027f713          	andi	a4,a5,2
   12f42:	000a3903          	ld	s2,0(s4)
   12f46:	c735                	beqz	a4,12fb2 <__sfvwrite_r+0xa8>
   12f48:	603c                	ld	a5,64(s0)
   12f4a:	780c                	ld	a1,48(s0)
   12f4c:	80000b37          	lui	s6,0x80000
   12f50:	4981                	li	s3,0
   12f52:	4481                	li	s1,0
   12f54:	c00b4b13          	xori	s6,s6,-1024
   12f58:	864e                	mv	a2,s3
   12f5a:	8556                	mv	a0,s5
   12f5c:	c885                	beqz	s1,12f8c <__sfvwrite_r+0x82>
   12f5e:	86a6                	mv	a3,s1
   12f60:	009b7363          	bgeu	s6,s1,12f66 <__sfvwrite_r+0x5c>
   12f64:	86da                	mv	a3,s6
   12f66:	2681                	sext.w	a3,a3
   12f68:	9782                	jalr	a5
   12f6a:	14a05563          	blez	a0,130b4 <__sfvwrite_r+0x1aa>
   12f6e:	010a3783          	ld	a5,16(s4)
   12f72:	99aa                	add	s3,s3,a0
   12f74:	8c89                	sub	s1,s1,a0
   12f76:	40a78533          	sub	a0,a5,a0
   12f7a:	00aa3823          	sd	a0,16(s4)
   12f7e:	10050763          	beqz	a0,1308c <__sfvwrite_r+0x182>
   12f82:	603c                	ld	a5,64(s0)
   12f84:	780c                	ld	a1,48(s0)
   12f86:	864e                	mv	a2,s3
   12f88:	8556                	mv	a0,s5
   12f8a:	f8f1                	bnez	s1,12f5e <__sfvwrite_r+0x54>
   12f8c:	00093983          	ld	s3,0(s2)
   12f90:	00893483          	ld	s1,8(s2)
   12f94:	0941                	addi	s2,s2,16
   12f96:	b7c9                	j	12f58 <__sfvwrite_r+0x4e>
   12f98:	85a2                	mv	a1,s0
   12f9a:	8556                	mv	a0,s5
   12f9c:	e0cff0ef          	jal	ra,125a8 <__swsetup_r>
   12fa0:	28051863          	bnez	a0,13230 <__sfvwrite_r+0x326>
   12fa4:	01045783          	lhu	a5,16(s0)
   12fa8:	000a3903          	ld	s2,0(s4)
   12fac:	0027f713          	andi	a4,a5,2
   12fb0:	ff41                	bnez	a4,12f48 <__sfvwrite_r+0x3e>
   12fb2:	0017f713          	andi	a4,a5,1
   12fb6:	eb35                	bnez	a4,1302a <__sfvwrite_r+0x120>
   12fb8:	4444                	lw	s1,12(s0)
   12fba:	6008                	ld	a0,0(s0)
   12fbc:	80000b37          	lui	s6,0x80000
   12fc0:	ffeb4b93          	xori	s7,s6,-2
   12fc4:	4c01                	li	s8,0
   12fc6:	4981                	li	s3,0
   12fc8:	fffb4b13          	not	s6,s6
   12fcc:	8ca6                	mv	s9,s1
   12fce:	04098863          	beqz	s3,1301e <__sfvwrite_r+0x114>
   12fd2:	2007f713          	andi	a4,a5,512
   12fd6:	12070a63          	beqz	a4,1310a <__sfvwrite_r+0x200>
   12fda:	8d26                	mv	s10,s1
   12fdc:	1899f763          	bgeu	s3,s1,1316a <__sfvwrite_r+0x260>
   12fe0:	8cce                	mv	s9,s3
   12fe2:	8d4e                	mv	s10,s3
   12fe4:	866a                	mv	a2,s10
   12fe6:	85e2                	mv	a1,s8
   12fe8:	5b3020ef          	jal	ra,15d9a <memmove>
   12fec:	4458                	lw	a4,12(s0)
   12fee:	601c                	ld	a5,0(s0)
   12ff0:	84ce                	mv	s1,s3
   12ff2:	41970cbb          	subw	s9,a4,s9
   12ff6:	97ea                	add	a5,a5,s10
   12ff8:	01942623          	sw	s9,12(s0)
   12ffc:	e01c                	sd	a5,0(s0)
   12ffe:	4981                	li	s3,0
   13000:	010a3603          	ld	a2,16(s4)
   13004:	9c26                	add	s8,s8,s1
   13006:	409604b3          	sub	s1,a2,s1
   1300a:	009a3823          	sd	s1,16(s4)
   1300e:	ccbd                	beqz	s1,1308c <__sfvwrite_r+0x182>
   13010:	4444                	lw	s1,12(s0)
   13012:	6008                	ld	a0,0(s0)
   13014:	01045783          	lhu	a5,16(s0)
   13018:	8ca6                	mv	s9,s1
   1301a:	fa099ce3          	bnez	s3,12fd2 <__sfvwrite_r+0xc8>
   1301e:	00093c03          	ld	s8,0(s2)
   13022:	00893983          	ld	s3,8(s2)
   13026:	0941                	addi	s2,s2,16
   13028:	b755                	j	12fcc <__sfvwrite_r+0xc2>
   1302a:	4981                	li	s3,0
   1302c:	4501                	li	a0,0
   1302e:	4c81                	li	s9,0
   13030:	4c01                	li	s8,0
   13032:	080c0b63          	beqz	s8,130c8 <__sfvwrite_r+0x1be>
   13036:	c145                	beqz	a0,130d6 <__sfvwrite_r+0x1cc>
   13038:	8bce                	mv	s7,s3
   1303a:	013c7363          	bgeu	s8,s3,13040 <__sfvwrite_r+0x136>
   1303e:	8be2                	mv	s7,s8
   13040:	6008                	ld	a0,0(s0)
   13042:	6c1c                	ld	a5,24(s0)
   13044:	5014                	lw	a3,32(s0)
   13046:	84de                	mv	s1,s7
   13048:	00a7f763          	bgeu	a5,a0,13056 <__sfvwrite_r+0x14c>
   1304c:	445c                	lw	a5,12(s0)
   1304e:	00d78b3b          	addw	s6,a5,a3
   13052:	097b4d63          	blt	s6,s7,130ec <__sfvwrite_r+0x1e2>
   13056:	18dbc463          	blt	s7,a3,131de <__sfvwrite_r+0x2d4>
   1305a:	603c                	ld	a5,64(s0)
   1305c:	780c                	ld	a1,48(s0)
   1305e:	8666                	mv	a2,s9
   13060:	8556                	mv	a0,s5
   13062:	9782                	jalr	a5
   13064:	84aa                	mv	s1,a0
   13066:	04a05763          	blez	a0,130b4 <__sfvwrite_r+0x1aa>
   1306a:	0005079b          	sext.w	a5,a0
   1306e:	40f989bb          	subw	s3,s3,a5
   13072:	4505                	li	a0,1
   13074:	02098b63          	beqz	s3,130aa <__sfvwrite_r+0x1a0>
   13078:	010a3783          	ld	a5,16(s4)
   1307c:	9ca6                	add	s9,s9,s1
   1307e:	409c0c33          	sub	s8,s8,s1
   13082:	409784b3          	sub	s1,a5,s1
   13086:	009a3823          	sd	s1,16(s4)
   1308a:	f4c5                	bnez	s1,13032 <__sfvwrite_r+0x128>
   1308c:	4501                	li	a0,0
   1308e:	60e6                	ld	ra,88(sp)
   13090:	6446                	ld	s0,80(sp)
   13092:	64a6                	ld	s1,72(sp)
   13094:	6906                	ld	s2,64(sp)
   13096:	79e2                	ld	s3,56(sp)
   13098:	7a42                	ld	s4,48(sp)
   1309a:	7aa2                	ld	s5,40(sp)
   1309c:	7b02                	ld	s6,32(sp)
   1309e:	6be2                	ld	s7,24(sp)
   130a0:	6c42                	ld	s8,16(sp)
   130a2:	6ca2                	ld	s9,8(sp)
   130a4:	6d02                	ld	s10,0(sp)
   130a6:	6125                	addi	sp,sp,96
   130a8:	8082                	ret
   130aa:	85a2                	mv	a1,s0
   130ac:	8556                	mv	a0,s5
   130ae:	845ff0ef          	jal	ra,128f2 <_fflush_r>
   130b2:	d179                	beqz	a0,13078 <__sfvwrite_r+0x16e>
   130b4:	01041783          	lh	a5,16(s0)
   130b8:	0407e793          	ori	a5,a5,64
   130bc:	00f41823          	sh	a5,16(s0)
   130c0:	557d                	li	a0,-1
   130c2:	b7f1                	j	1308e <__sfvwrite_r+0x184>
   130c4:	4501                	li	a0,0
   130c6:	8082                	ret
   130c8:	00893c03          	ld	s8,8(s2)
   130cc:	00093c83          	ld	s9,0(s2)
   130d0:	0941                	addi	s2,s2,16
   130d2:	fe0c0be3          	beqz	s8,130c8 <__sfvwrite_r+0x1be>
   130d6:	8662                	mv	a2,s8
   130d8:	45a9                	li	a1,10
   130da:	8566                	mv	a0,s9
   130dc:	343020ef          	jal	ra,15c1e <memchr>
   130e0:	12050f63          	beqz	a0,1321e <__sfvwrite_r+0x314>
   130e4:	0505                	addi	a0,a0,1
   130e6:	419509bb          	subw	s3,a0,s9
   130ea:	b7b9                	j	13038 <__sfvwrite_r+0x12e>
   130ec:	85e6                	mv	a1,s9
   130ee:	865a                	mv	a2,s6
   130f0:	4ab020ef          	jal	ra,15d9a <memmove>
   130f4:	601c                	ld	a5,0(s0)
   130f6:	85a2                	mv	a1,s0
   130f8:	8556                	mv	a0,s5
   130fa:	97da                	add	a5,a5,s6
   130fc:	e01c                	sd	a5,0(s0)
   130fe:	ff4ff0ef          	jal	ra,128f2 <_fflush_r>
   13102:	f94d                	bnez	a0,130b4 <__sfvwrite_r+0x1aa>
   13104:	87da                	mv	a5,s6
   13106:	84da                	mv	s1,s6
   13108:	b79d                	j	1306e <__sfvwrite_r+0x164>
   1310a:	6c1c                	ld	a5,24(s0)
   1310c:	02a7e863          	bltu	a5,a0,1313c <__sfvwrite_r+0x232>
   13110:	501c                	lw	a5,32(s0)
   13112:	02f9e563          	bltu	s3,a5,1313c <__sfvwrite_r+0x232>
   13116:	86ce                	mv	a3,s3
   13118:	013bf363          	bgeu	s7,s3,1311e <__sfvwrite_r+0x214>
   1311c:	86da                	mv	a3,s6
   1311e:	02f6c6bb          	divw	a3,a3,a5
   13122:	6038                	ld	a4,64(s0)
   13124:	780c                	ld	a1,48(s0)
   13126:	8662                	mv	a2,s8
   13128:	8556                	mv	a0,s5
   1312a:	02f686bb          	mulw	a3,a3,a5
   1312e:	9702                	jalr	a4
   13130:	84aa                	mv	s1,a0
   13132:	f8a051e3          	blez	a0,130b4 <__sfvwrite_r+0x1aa>
   13136:	409989b3          	sub	s3,s3,s1
   1313a:	b5d9                	j	13000 <__sfvwrite_r+0xf6>
   1313c:	0099f363          	bgeu	s3,s1,13142 <__sfvwrite_r+0x238>
   13140:	84ce                	mv	s1,s3
   13142:	8626                	mv	a2,s1
   13144:	85e2                	mv	a1,s8
   13146:	455020ef          	jal	ra,15d9a <memmove>
   1314a:	445c                	lw	a5,12(s0)
   1314c:	6018                	ld	a4,0(s0)
   1314e:	409786bb          	subw	a3,a5,s1
   13152:	9726                	add	a4,a4,s1
   13154:	c454                	sw	a3,12(s0)
   13156:	e018                	sd	a4,0(s0)
   13158:	fef9                	bnez	a3,13136 <__sfvwrite_r+0x22c>
   1315a:	85a2                	mv	a1,s0
   1315c:	8556                	mv	a0,s5
   1315e:	f94ff0ef          	jal	ra,128f2 <_fflush_r>
   13162:	f929                	bnez	a0,130b4 <__sfvwrite_r+0x1aa>
   13164:	409989b3          	sub	s3,s3,s1
   13168:	bd61                	j	13000 <__sfvwrite_r+0xf6>
   1316a:	4807f713          	andi	a4,a5,1152
   1316e:	e6070be3          	beqz	a4,12fe4 <__sfvwrite_r+0xda>
   13172:	5004                	lw	s1,32(s0)
   13174:	6c0c                	ld	a1,24(s0)
   13176:	00198713          	addi	a4,s3,1
   1317a:	0014969b          	slliw	a3,s1,0x1
   1317e:	9ea5                	addw	a3,a3,s1
   13180:	8d0d                	sub	a0,a0,a1
   13182:	01f6d49b          	srliw	s1,a3,0x1f
   13186:	00050d1b          	sext.w	s10,a0
   1318a:	9cb5                	addw	s1,s1,a3
   1318c:	4014d49b          	sraiw	s1,s1,0x1
   13190:	976a                	add	a4,a4,s10
   13192:	00e4f563          	bgeu	s1,a4,1319c <__sfvwrite_r+0x292>
   13196:	0019849b          	addiw	s1,s3,1
   1319a:	9ca9                	addw	s1,s1,a0
   1319c:	4007f793          	andi	a5,a5,1024
   131a0:	cfa9                	beqz	a5,131fa <__sfvwrite_r+0x2f0>
   131a2:	85a6                	mv	a1,s1
   131a4:	8556                	mv	a0,s5
   131a6:	408020ef          	jal	ra,155ae <_malloc_r>
   131aa:	8caa                	mv	s9,a0
   131ac:	cd25                	beqz	a0,13224 <__sfvwrite_r+0x31a>
   131ae:	6c0c                	ld	a1,24(s0)
   131b0:	866a                	mv	a2,s10
   131b2:	30b020ef          	jal	ra,15cbc <memcpy>
   131b6:	01045783          	lhu	a5,16(s0)
   131ba:	b7f7f793          	andi	a5,a5,-1153
   131be:	0807e793          	ori	a5,a5,128
   131c2:	00f41823          	sh	a5,16(s0)
   131c6:	01ac8533          	add	a0,s9,s10
   131ca:	41a487bb          	subw	a5,s1,s10
   131ce:	01943c23          	sd	s9,24(s0)
   131d2:	e008                	sd	a0,0(s0)
   131d4:	d004                	sw	s1,32(s0)
   131d6:	8cce                	mv	s9,s3
   131d8:	c45c                	sw	a5,12(s0)
   131da:	8d4e                	mv	s10,s3
   131dc:	b521                	j	12fe4 <__sfvwrite_r+0xda>
   131de:	865e                	mv	a2,s7
   131e0:	85e6                	mv	a1,s9
   131e2:	3b9020ef          	jal	ra,15d9a <memmove>
   131e6:	4458                	lw	a4,12(s0)
   131e8:	6010                	ld	a2,0(s0)
   131ea:	000b879b          	sext.w	a5,s7
   131ee:	4177073b          	subw	a4,a4,s7
   131f2:	965e                	add	a2,a2,s7
   131f4:	c458                	sw	a4,12(s0)
   131f6:	e010                	sd	a2,0(s0)
   131f8:	bd9d                	j	1306e <__sfvwrite_r+0x164>
   131fa:	8626                	mv	a2,s1
   131fc:	8556                	mv	a0,s5
   131fe:	7f4030ef          	jal	ra,169f2 <_realloc_r>
   13202:	8caa                	mv	s9,a0
   13204:	f169                	bnez	a0,131c6 <__sfvwrite_r+0x2bc>
   13206:	6c0c                	ld	a1,24(s0)
   13208:	8556                	mv	a0,s5
   1320a:	ab1ff0ef          	jal	ra,12cba <_free_r>
   1320e:	01041783          	lh	a5,16(s0)
   13212:	4731                	li	a4,12
   13214:	00eaa023          	sw	a4,0(s5)
   13218:	f7f7f793          	andi	a5,a5,-129
   1321c:	bd71                	j	130b8 <__sfvwrite_r+0x1ae>
   1321e:	001c099b          	addiw	s3,s8,1
   13222:	bd19                	j	13038 <__sfvwrite_r+0x12e>
   13224:	4731                	li	a4,12
   13226:	01041783          	lh	a5,16(s0)
   1322a:	00eaa023          	sw	a4,0(s5)
   1322e:	b569                	j	130b8 <__sfvwrite_r+0x1ae>
   13230:	557d                	li	a0,-1
   13232:	bdb1                	j	1308e <__sfvwrite_r+0x184>

0000000000013234 <_fwalk>:
   13234:	715d                	addi	sp,sp,-80
   13236:	f84a                	sd	s2,48(sp)
   13238:	f44e                	sd	s3,40(sp)
   1323a:	f052                	sd	s4,32(sp)
   1323c:	ec56                	sd	s5,24(sp)
   1323e:	e85a                	sd	s6,16(sp)
   13240:	e45e                	sd	s7,8(sp)
   13242:	e486                	sd	ra,72(sp)
   13244:	e0a2                	sd	s0,64(sp)
   13246:	fc26                	sd	s1,56(sp)
   13248:	8a2e                	mv	s4,a1
   1324a:	52050913          	addi	s2,a0,1312
   1324e:	4b01                	li	s6,0
   13250:	0b000a93          	li	s5,176
   13254:	4b85                	li	s7,1
   13256:	59fd                	li	s3,-1
   13258:	00892783          	lw	a5,8(s2)
   1325c:	01093403          	ld	s0,16(s2)
   13260:	02f05b63          	blez	a5,13296 <_fwalk+0x62>
   13264:	fff7849b          	addiw	s1,a5,-1
   13268:	1482                	slli	s1,s1,0x20
   1326a:	9081                	srli	s1,s1,0x20
   1326c:	0485                	addi	s1,s1,1
   1326e:	035484b3          	mul	s1,s1,s5
   13272:	94a2                	add	s1,s1,s0
   13274:	01045783          	lhu	a5,16(s0)
   13278:	00fbfb63          	bgeu	s7,a5,1328e <_fwalk+0x5a>
   1327c:	01241783          	lh	a5,18(s0)
   13280:	8522                	mv	a0,s0
   13282:	01378663          	beq	a5,s3,1328e <_fwalk+0x5a>
   13286:	9a02                	jalr	s4
   13288:	01656b33          	or	s6,a0,s6
   1328c:	2b01                	sext.w	s6,s6
   1328e:	0b040413          	addi	s0,s0,176
   13292:	fe8491e3          	bne	s1,s0,13274 <_fwalk+0x40>
   13296:	00093903          	ld	s2,0(s2)
   1329a:	fa091fe3          	bnez	s2,13258 <_fwalk+0x24>
   1329e:	60a6                	ld	ra,72(sp)
   132a0:	6406                	ld	s0,64(sp)
   132a2:	74e2                	ld	s1,56(sp)
   132a4:	7942                	ld	s2,48(sp)
   132a6:	79a2                	ld	s3,40(sp)
   132a8:	7a02                	ld	s4,32(sp)
   132aa:	6ae2                	ld	s5,24(sp)
   132ac:	6ba2                	ld	s7,8(sp)
   132ae:	855a                	mv	a0,s6
   132b0:	6b42                	ld	s6,16(sp)
   132b2:	6161                	addi	sp,sp,80
   132b4:	8082                	ret

00000000000132b6 <_fwalk_reent>:
   132b6:	715d                	addi	sp,sp,-80
   132b8:	f84a                	sd	s2,48(sp)
   132ba:	f44e                	sd	s3,40(sp)
   132bc:	f052                	sd	s4,32(sp)
   132be:	ec56                	sd	s5,24(sp)
   132c0:	e85a                	sd	s6,16(sp)
   132c2:	e45e                	sd	s7,8(sp)
   132c4:	e062                	sd	s8,0(sp)
   132c6:	e486                	sd	ra,72(sp)
   132c8:	e0a2                	sd	s0,64(sp)
   132ca:	fc26                	sd	s1,56(sp)
   132cc:	8c2a                	mv	s8,a0
   132ce:	8a2e                	mv	s4,a1
   132d0:	52050913          	addi	s2,a0,1312
   132d4:	4b01                	li	s6,0
   132d6:	0b000a93          	li	s5,176
   132da:	4b85                	li	s7,1
   132dc:	59fd                	li	s3,-1
   132de:	00892783          	lw	a5,8(s2)
   132e2:	01093403          	ld	s0,16(s2)
   132e6:	02f05c63          	blez	a5,1331e <_fwalk_reent+0x68>
   132ea:	fff7849b          	addiw	s1,a5,-1
   132ee:	1482                	slli	s1,s1,0x20
   132f0:	9081                	srli	s1,s1,0x20
   132f2:	0485                	addi	s1,s1,1
   132f4:	035484b3          	mul	s1,s1,s5
   132f8:	94a2                	add	s1,s1,s0
   132fa:	01045783          	lhu	a5,16(s0)
   132fe:	00fbfc63          	bgeu	s7,a5,13316 <_fwalk_reent+0x60>
   13302:	01241783          	lh	a5,18(s0)
   13306:	85a2                	mv	a1,s0
   13308:	8562                	mv	a0,s8
   1330a:	01378663          	beq	a5,s3,13316 <_fwalk_reent+0x60>
   1330e:	9a02                	jalr	s4
   13310:	01656b33          	or	s6,a0,s6
   13314:	2b01                	sext.w	s6,s6
   13316:	0b040413          	addi	s0,s0,176
   1331a:	fe8490e3          	bne	s1,s0,132fa <_fwalk_reent+0x44>
   1331e:	00093903          	ld	s2,0(s2)
   13322:	fa091ee3          	bnez	s2,132de <_fwalk_reent+0x28>
   13326:	60a6                	ld	ra,72(sp)
   13328:	6406                	ld	s0,64(sp)
   1332a:	74e2                	ld	s1,56(sp)
   1332c:	7942                	ld	s2,48(sp)
   1332e:	79a2                	ld	s3,40(sp)
   13330:	7a02                	ld	s4,32(sp)
   13332:	6ae2                	ld	s5,24(sp)
   13334:	6ba2                	ld	s7,8(sp)
   13336:	6c02                	ld	s8,0(sp)
   13338:	855a                	mv	a0,s6
   1333a:	6b42                	ld	s6,16(sp)
   1333c:	6161                	addi	sp,sp,80
   1333e:	8082                	ret

0000000000013340 <eshdn1>:
   13340:	00450693          	addi	a3,a0,4
   13344:	4781                	li	a5,0
   13346:	0569                	addi	a0,a0,26
   13348:	7861                	lui	a6,0xffff8
   1334a:	a811                	j	1335e <eshdn1+0x1e>
   1334c:	0017979b          	slliw	a5,a5,0x1
   13350:	00e69023          	sh	a4,0(a3)
   13354:	17c2                	slli	a5,a5,0x30
   13356:	0689                	addi	a3,a3,2
   13358:	93c1                	srli	a5,a5,0x30
   1335a:	02d50863          	beq	a0,a3,1338a <eshdn1+0x4a>
   1335e:	0006d703          	lhu	a4,0(a3)
   13362:	00177613          	andi	a2,a4,1
   13366:	c219                	beqz	a2,1336c <eshdn1+0x2c>
   13368:	0017e793          	ori	a5,a5,1
   1336c:	8305                	srli	a4,a4,0x1
   1336e:	0027f613          	andi	a2,a5,2
   13372:	010765b3          	or	a1,a4,a6
   13376:	da79                	beqz	a2,1334c <eshdn1+0xc>
   13378:	0017979b          	slliw	a5,a5,0x1
   1337c:	00b69023          	sh	a1,0(a3)
   13380:	17c2                	slli	a5,a5,0x30
   13382:	0689                	addi	a3,a3,2
   13384:	93c1                	srli	a5,a5,0x30
   13386:	fcd51ce3          	bne	a0,a3,1335e <eshdn1+0x1e>
   1338a:	8082                	ret

000000000001338c <eshup1>:
   1338c:	01850693          	addi	a3,a0,24
   13390:	4701                	li	a4,0
   13392:	0509                	addi	a0,a0,2
   13394:	a811                	j	133a8 <eshup1+0x1c>
   13396:	0017171b          	slliw	a4,a4,0x1
   1339a:	00f69023          	sh	a5,0(a3)
   1339e:	1742                	slli	a4,a4,0x30
   133a0:	16f9                	addi	a3,a3,-2
   133a2:	9341                	srli	a4,a4,0x30
   133a4:	04d50063          	beq	a0,a3,133e4 <eshup1+0x58>
   133a8:	0006d783          	lhu	a5,0(a3)
   133ac:	0107961b          	slliw	a2,a5,0x10
   133b0:	4106561b          	sraiw	a2,a2,0x10
   133b4:	02061593          	slli	a1,a2,0x20
   133b8:	0017979b          	slliw	a5,a5,0x1
   133bc:	0005d463          	bgez	a1,133c4 <eshup1+0x38>
   133c0:	00176713          	ori	a4,a4,1
   133c4:	17c2                	slli	a5,a5,0x30
   133c6:	93c1                	srli	a5,a5,0x30
   133c8:	00277613          	andi	a2,a4,2
   133cc:	0017e593          	ori	a1,a5,1
   133d0:	d279                	beqz	a2,13396 <eshup1+0xa>
   133d2:	0017171b          	slliw	a4,a4,0x1
   133d6:	00b69023          	sh	a1,0(a3)
   133da:	1742                	slli	a4,a4,0x30
   133dc:	16f9                	addi	a3,a3,-2
   133de:	9341                	srli	a4,a4,0x30
   133e0:	fcd514e3          	bne	a0,a3,133a8 <eshup1+0x1c>
   133e4:	8082                	ret

00000000000133e6 <m16m>:
   133e6:	1101                	addi	sp,sp,-32
   133e8:	6e41                	lui	t3,0x10
   133ea:	00011b23          	sh	zero,22(sp)
   133ee:	00011c23          	sh	zero,24(sp)
   133f2:	05e1                	addi	a1,a1,24
   133f4:	083c                	addi	a5,sp,24
   133f6:	00410813          	addi	a6,sp,4
   133fa:	1e7d                	addi	t3,t3,-1
   133fc:	0005d703          	lhu	a4,0(a1)
   13400:	17f9                	addi	a5,a5,-2
   13402:	15f9                	addi	a1,a1,-2
   13404:	e315                	bnez	a4,13428 <m16m+0x42>
   13406:	fe079f23          	sh	zero,-2(a5)
   1340a:	ff0799e3          	bne	a5,a6,133fc <m16m+0x16>
   1340e:	0611                	addi	a2,a2,4
   13410:	01a10693          	addi	a3,sp,26
   13414:	0007d703          	lhu	a4,0(a5)
   13418:	0789                	addi	a5,a5,2
   1341a:	0609                	addi	a2,a2,2
   1341c:	fee61f23          	sh	a4,-2(a2)
   13420:	fed79ae3          	bne	a5,a3,13414 <m16m+0x2e>
   13424:	6105                	addi	sp,sp,32
   13426:	8082                	ret
   13428:	02a70733          	mul	a4,a4,a0
   1342c:	0027d883          	lhu	a7,2(a5)
   13430:	0007d303          	lhu	t1,0(a5)
   13434:	01c776b3          	and	a3,a4,t3
   13438:	96c6                	add	a3,a3,a7
   1343a:	8341                	srli	a4,a4,0x10
   1343c:	0106d893          	srli	a7,a3,0x10
   13440:	971a                	add	a4,a4,t1
   13442:	9746                	add	a4,a4,a7
   13444:	01075893          	srli	a7,a4,0x10
   13448:	00d79123          	sh	a3,2(a5)
   1344c:	00e79023          	sh	a4,0(a5)
   13450:	ff179f23          	sh	a7,-2(a5)
   13454:	fb0794e3          	bne	a5,a6,133fc <m16m+0x16>
   13458:	bf5d                	j	1340e <m16m+0x28>

000000000001345a <eisnan.part.0>:
   1345a:	01250713          	addi	a4,a0,18
   1345e:	00055783          	lhu	a5,0(a0)
   13462:	0509                	addi	a0,a0,2
   13464:	e789                	bnez	a5,1346e <eisnan.part.0+0x14>
   13466:	fee51ce3          	bne	a0,a4,1345e <eisnan.part.0+0x4>
   1346a:	4501                	li	a0,0
   1346c:	8082                	ret
   1346e:	4505                	li	a0,1
   13470:	8082                	ret

0000000000013472 <eneg>:
   13472:	1101                	addi	sp,sp,-32
   13474:	e426                	sd	s1,8(sp)
   13476:	01255483          	lhu	s1,18(a0)
   1347a:	e822                	sd	s0,16(sp)
   1347c:	ec06                	sd	ra,24(sp)
   1347e:	fff4c793          	not	a5,s1
   13482:	03179713          	slli	a4,a5,0x31
   13486:	842a                	mv	s0,a0
   13488:	e701                	bnez	a4,13490 <eneg+0x1e>
   1348a:	fd1ff0ef          	jal	ra,1345a <eisnan.part.0>
   1348e:	e509                	bnez	a0,13498 <eneg+0x26>
   13490:	77e1                	lui	a5,0xffff8
   13492:	8cbd                	xor	s1,s1,a5
   13494:	00941923          	sh	s1,18(s0)
   13498:	60e2                	ld	ra,24(sp)
   1349a:	6442                	ld	s0,16(sp)
   1349c:	64a2                	ld	s1,8(sp)
   1349e:	6105                	addi	sp,sp,32
   134a0:	8082                	ret

00000000000134a2 <eisneg>:
   134a2:	1141                	addi	sp,sp,-16
   134a4:	e022                	sd	s0,0(sp)
   134a6:	01255403          	lhu	s0,18(a0)
   134aa:	e406                	sd	ra,8(sp)
   134ac:	fff44793          	not	a5,s0
   134b0:	03179713          	slli	a4,a5,0x31
   134b4:	e711                	bnez	a4,134c0 <eisneg+0x1e>
   134b6:	fa5ff0ef          	jal	ra,1345a <eisnan.part.0>
   134ba:	87aa                	mv	a5,a0
   134bc:	4501                	li	a0,0
   134be:	e399                	bnez	a5,134c4 <eisneg+0x22>
   134c0:	00f45513          	srli	a0,s0,0xf
   134c4:	60a2                	ld	ra,8(sp)
   134c6:	6402                	ld	s0,0(sp)
   134c8:	0141                	addi	sp,sp,16
   134ca:	8082                	ret

00000000000134cc <emovi>:
   134cc:	01255783          	lhu	a5,18(a0)
   134d0:	7139                	addi	sp,sp,-64
   134d2:	f822                	sd	s0,48(sp)
   134d4:	00f7d79b          	srliw	a5,a5,0xf
   134d8:	f426                	sd	s1,40(sp)
   134da:	fc06                	sd	ra,56(sp)
   134dc:	f04a                	sd	s2,32(sp)
   134de:	ec4e                	sd	s3,24(sp)
   134e0:	40f007bb          	negw	a5,a5
   134e4:	00f59023          	sh	a5,0(a1)
   134e8:	01255783          	lhu	a5,18(a0)
   134ec:	6721                	lui	a4,0x8
   134ee:	177d                	addi	a4,a4,-1
   134f0:	8ff9                	and	a5,a5,a4
   134f2:	00f59123          	sh	a5,2(a1)
   134f6:	84aa                	mv	s1,a0
   134f8:	01050413          	addi	s0,a0,16
   134fc:	02e78863          	beq	a5,a4,1352c <emovi+0x60>
   13500:	00658793          	addi	a5,a1,6
   13504:	00059223          	sh	zero,4(a1)
   13508:	1579                	addi	a0,a0,-2
   1350a:	00045703          	lhu	a4,0(s0)
   1350e:	1479                	addi	s0,s0,-2
   13510:	0789                	addi	a5,a5,2
   13512:	fee79f23          	sh	a4,-2(a5) # ffffffffffff7ffe <__BSS_END__+0xfffffffffffbf946>
   13516:	fe851ae3          	bne	a0,s0,1350a <emovi+0x3e>
   1351a:	00059c23          	sh	zero,24(a1)
   1351e:	70e2                	ld	ra,56(sp)
   13520:	7442                	ld	s0,48(sp)
   13522:	74a2                	ld	s1,40(sp)
   13524:	7902                	ld	s2,32(sp)
   13526:	69e2                	ld	s3,24(sp)
   13528:	6121                	addi	sp,sp,64
   1352a:	8082                	ret
   1352c:	0007869b          	sext.w	a3,a5
   13530:	01255783          	lhu	a5,18(a0)
   13534:	00458913          	addi	s2,a1,4
   13538:	8ff5                	and	a5,a5,a3
   1353a:	02d79663          	bne	a5,a3,13566 <emovi+0x9a>
   1353e:	e42e                	sd	a1,8(sp)
   13540:	f1bff0ef          	jal	ra,1345a <eisnan.part.0>
   13544:	65a2                	ld	a1,8(sp)
   13546:	c105                	beqz	a0,13566 <emovi+0x9a>
   13548:	00658793          	addi	a5,a1,6
   1354c:	00059223          	sh	zero,4(a1)
   13550:	ffc48513          	addi	a0,s1,-4
   13554:	00045703          	lhu	a4,0(s0)
   13558:	1479                	addi	s0,s0,-2
   1355a:	0789                	addi	a5,a5,2
   1355c:	fee79f23          	sh	a4,-2(a5)
   13560:	fe851ae3          	bne	a0,s0,13554 <emovi+0x88>
   13564:	bf6d                	j	1351e <emovi+0x52>
   13566:	01a58993          	addi	s3,a1,26
   1356a:	0909                	addi	s2,s2,2
   1356c:	fe091f23          	sh	zero,-2(s2)
   13570:	ff299de3          	bne	s3,s2,1356a <emovi+0x9e>
   13574:	70e2                	ld	ra,56(sp)
   13576:	7442                	ld	s0,48(sp)
   13578:	74a2                	ld	s1,40(sp)
   1357a:	7902                	ld	s2,32(sp)
   1357c:	69e2                	ld	s3,24(sp)
   1357e:	6121                	addi	sp,sp,64
   13580:	8082                	ret

0000000000013582 <ecmp>:
   13582:	01255783          	lhu	a5,18(a0)
   13586:	711d                	addi	sp,sp,-96
   13588:	e8a2                	sd	s0,80(sp)
   1358a:	fff7c793          	not	a5,a5
   1358e:	e4a6                	sd	s1,72(sp)
   13590:	ec86                	sd	ra,88(sp)
   13592:	03179713          	slli	a4,a5,0x31
   13596:	84aa                	mv	s1,a0
   13598:	842e                	mv	s0,a1
   1359a:	e701                	bnez	a4,135a2 <ecmp+0x20>
   1359c:	ebfff0ef          	jal	ra,1345a <eisnan.part.0>
   135a0:	ed39                	bnez	a0,135fe <ecmp+0x7c>
   135a2:	01245783          	lhu	a5,18(s0)
   135a6:	fff7c793          	not	a5,a5
   135aa:	03179713          	slli	a4,a5,0x31
   135ae:	c721                	beqz	a4,135f6 <ecmp+0x74>
   135b0:	858a                	mv	a1,sp
   135b2:	8526                	mv	a0,s1
   135b4:	f19ff0ef          	jal	ra,134cc <emovi>
   135b8:	100c                	addi	a1,sp,32
   135ba:	8522                	mv	a0,s0
   135bc:	f11ff0ef          	jal	ra,134cc <emovi>
   135c0:	00015583          	lhu	a1,0(sp)
   135c4:	02015783          	lhu	a5,32(sp)
   135c8:	02b78d63          	beq	a5,a1,13602 <ecmp+0x80>
   135cc:	00210793          	addi	a5,sp,2
   135d0:	02210713          	addi	a4,sp,34
   135d4:	0830                	addi	a2,sp,24
   135d6:	0007d683          	lhu	a3,0(a5)
   135da:	0789                	addi	a5,a5,2
   135dc:	e2ad                	bnez	a3,1363e <ecmp+0xbc>
   135de:	00075683          	lhu	a3,0(a4) # 8000 <register_fini-0x80b0>
   135e2:	0709                	addi	a4,a4,2
   135e4:	eea9                	bnez	a3,1363e <ecmp+0xbc>
   135e6:	fec798e3          	bne	a5,a2,135d6 <ecmp+0x54>
   135ea:	4501                	li	a0,0
   135ec:	60e6                	ld	ra,88(sp)
   135ee:	6446                	ld	s0,80(sp)
   135f0:	64a6                	ld	s1,72(sp)
   135f2:	6125                	addi	sp,sp,96
   135f4:	8082                	ret
   135f6:	8522                	mv	a0,s0
   135f8:	e63ff0ef          	jal	ra,1345a <eisnan.part.0>
   135fc:	d955                	beqz	a0,135b0 <ecmp+0x2e>
   135fe:	5579                	li	a0,-2
   13600:	b7f5                	j	135ec <ecmp+0x6a>
   13602:	4505                	li	a0,1
   13604:	e1a9                	bnez	a1,13646 <ecmp+0xc4>
   13606:	00215603          	lhu	a2,2(sp)
   1360a:	02215683          	lhu	a3,34(sp)
   1360e:	00210713          	addi	a4,sp,2
   13612:	02210793          	addi	a5,sp,34
   13616:	182c                	addi	a1,sp,56
   13618:	0789                	addi	a5,a5,2
   1361a:	0709                	addi	a4,a4,2
   1361c:	00d61c63          	bne	a2,a3,13634 <ecmp+0xb2>
   13620:	fcb785e3          	beq	a5,a1,135ea <ecmp+0x68>
   13624:	00075603          	lhu	a2,0(a4)
   13628:	0007d683          	lhu	a3,0(a5)
   1362c:	0709                	addi	a4,a4,2
   1362e:	0789                	addi	a5,a5,2
   13630:	fed608e3          	beq	a2,a3,13620 <ecmp+0x9e>
   13634:	fac6ece3          	bltu	a3,a2,135ec <ecmp+0x6a>
   13638:	40a0053b          	negw	a0,a0
   1363c:	bf45                	j	135ec <ecmp+0x6a>
   1363e:	4505                	li	a0,1
   13640:	d5d5                	beqz	a1,135ec <ecmp+0x6a>
   13642:	557d                	li	a0,-1
   13644:	b765                	j	135ec <ecmp+0x6a>
   13646:	557d                	li	a0,-1
   13648:	bf7d                	j	13606 <ecmp+0x84>

000000000001364a <eisinf.part.0>:
   1364a:	1141                	addi	sp,sp,-16
   1364c:	e406                	sd	ra,8(sp)
   1364e:	e0dff0ef          	jal	ra,1345a <eisnan.part.0>
   13652:	60a2                	ld	ra,8(sp)
   13654:	00153513          	seqz	a0,a0
   13658:	0141                	addi	sp,sp,16
   1365a:	8082                	ret

000000000001365c <eshift.part.0>:
   1365c:	7179                	addi	sp,sp,-48
   1365e:	f022                	sd	s0,32(sp)
   13660:	ec26                	sd	s1,24(sp)
   13662:	f406                	sd	ra,40(sp)
   13664:	e84a                	sd	s2,16(sp)
   13666:	e44e                	sd	s3,8(sp)
   13668:	84ae                	mv	s1,a1
   1366a:	842a                	mv	s0,a0
   1366c:	0605cb63          	bltz	a1,136e2 <eshift.part.0+0x86>
   13670:	47bd                	li	a5,15
   13672:	862e                	mv	a2,a1
   13674:	0511                	addi	a0,a0,4
   13676:	01840693          	addi	a3,s0,24
   1367a:	45bd                	li	a1,15
   1367c:	0297d063          	bge	a5,s1,1369c <eshift.part.0+0x40>
   13680:	87aa                	mv	a5,a0
   13682:	0027d703          	lhu	a4,2(a5)
   13686:	0789                	addi	a5,a5,2
   13688:	fee79f23          	sh	a4,-2(a5)
   1368c:	fed79be3          	bne	a5,a3,13682 <eshift.part.0+0x26>
   13690:	00041c23          	sh	zero,24(s0)
   13694:	3641                	addiw	a2,a2,-16
   13696:	fec5c5e3          	blt	a1,a2,13680 <eshift.part.0+0x24>
   1369a:	88bd                	andi	s1,s1,15
   1369c:	479d                	li	a5,7
   1369e:	0297d463          	bge	a5,s1,136c6 <eshift.part.0+0x6a>
   136a2:	01840713          	addi	a4,s0,24
   136a6:	00240593          	addi	a1,s0,2
   136aa:	4781                	li	a5,0
   136ac:	00075683          	lhu	a3,0(a4)
   136b0:	1779                	addi	a4,a4,-2
   136b2:	00869613          	slli	a2,a3,0x8
   136b6:	8fd1                	or	a5,a5,a2
   136b8:	00f71123          	sh	a5,2(a4)
   136bc:	0086d793          	srli	a5,a3,0x8
   136c0:	feb716e3          	bne	a4,a1,136ac <eshift.part.0+0x50>
   136c4:	34e1                	addiw	s1,s1,-8
   136c6:	c491                	beqz	s1,136d2 <eshift.part.0+0x76>
   136c8:	34fd                	addiw	s1,s1,-1
   136ca:	8522                	mv	a0,s0
   136cc:	cc1ff0ef          	jal	ra,1338c <eshup1>
   136d0:	fce5                	bnez	s1,136c8 <eshift.part.0+0x6c>
   136d2:	4501                	li	a0,0
   136d4:	70a2                	ld	ra,40(sp)
   136d6:	7402                	ld	s0,32(sp)
   136d8:	64e2                	ld	s1,24(sp)
   136da:	6942                	ld	s2,16(sp)
   136dc:	69a2                	ld	s3,8(sp)
   136de:	6145                	addi	sp,sp,48
   136e0:	8082                	ret
   136e2:	57c5                	li	a5,-15
   136e4:	40b0093b          	negw	s2,a1
   136e8:	0ef5d463          	bge	a1,a5,137d0 <eshift.part.0+0x174>
   136ec:	01850593          	addi	a1,a0,24
   136f0:	4981                	li	s3,0
   136f2:	00450693          	addi	a3,a0,4
   136f6:	463d                	li	a2,15
   136f8:	01845703          	lhu	a4,24(s0)
   136fc:	87ae                	mv	a5,a1
   136fe:	00e9e9b3          	or	s3,s3,a4
   13702:	ffe7d703          	lhu	a4,-2(a5)
   13706:	17f9                	addi	a5,a5,-2
   13708:	00e79123          	sh	a4,2(a5)
   1370c:	fed79be3          	bne	a5,a3,13702 <eshift.part.0+0xa6>
   13710:	00041223          	sh	zero,4(s0)
   13714:	3941                	addiw	s2,s2,-16
   13716:	ff2641e3          	blt	a2,s2,136f8 <eshift.part.0+0x9c>
   1371a:	57c1                	li	a5,-16
   1371c:	5745                	li	a4,-15
   1371e:	9f85                	subw	a5,a5,s1
   13720:	4901                	li	s2,0
   13722:	08e4c063          	blt	s1,a4,137a2 <eshift.part.0+0x146>
   13726:	00f9093b          	addw	s2,s2,a5
   1372a:	479d                	li	a5,7
   1372c:	0327df63          	bge	a5,s2,1376a <eshift.part.0+0x10e>
   13730:	0109999b          	slliw	s3,s3,0x10
   13734:	4109d99b          	sraiw	s3,s3,0x10
   13738:	01844783          	lbu	a5,24(s0)
   1373c:	01a40593          	addi	a1,s0,26
   13740:	00f9e9b3          	or	s3,s3,a5
   13744:	19c2                	slli	s3,s3,0x30
   13746:	0309d993          	srli	s3,s3,0x30
   1374a:	4781                	li	a5,0
   1374c:	0006d603          	lhu	a2,0(a3)
   13750:	0689                	addi	a3,a3,2
   13752:	0086571b          	srliw	a4,a2,0x8
   13756:	8f5d                	or	a4,a4,a5
   13758:	0086179b          	slliw	a5,a2,0x8
   1375c:	17c2                	slli	a5,a5,0x30
   1375e:	fee69f23          	sh	a4,-2(a3)
   13762:	93c1                	srli	a5,a5,0x30
   13764:	feb694e3          	bne	a3,a1,1374c <eshift.part.0+0xf0>
   13768:	3961                	addiw	s2,s2,-8
   1376a:	04090b63          	beqz	s2,137c0 <eshift.part.0+0x164>
   1376e:	01845783          	lhu	a5,24(s0)
   13772:	397d                	addiw	s2,s2,-1
   13774:	8522                	mv	a0,s0
   13776:	8b85                	andi	a5,a5,1
   13778:	0137e9b3          	or	s3,a5,s3
   1377c:	bc5ff0ef          	jal	ra,13340 <eshdn1>
   13780:	fe0917e3          	bnez	s2,1376e <eshift.part.0+0x112>
   13784:	0109979b          	slliw	a5,s3,0x10
   13788:	4107d79b          	sraiw	a5,a5,0x10
   1378c:	e78d                	bnez	a5,137b6 <eshift.part.0+0x15a>
   1378e:	03099513          	slli	a0,s3,0x30
   13792:	9141                	srli	a0,a0,0x30
   13794:	70a2                	ld	ra,40(sp)
   13796:	7402                	ld	s0,32(sp)
   13798:	64e2                	ld	s1,24(sp)
   1379a:	6942                	ld	s2,16(sp)
   1379c:	69a2                	ld	s3,8(sp)
   1379e:	6145                	addi	sp,sp,48
   137a0:	8082                	ret
   137a2:	ff07f913          	andi	s2,a5,-16
   137a6:	4120093b          	negw	s2,s2
   137aa:	00f9093b          	addw	s2,s2,a5
   137ae:	479d                	li	a5,7
   137b0:	fb27dde3          	bge	a5,s2,1376a <eshift.part.0+0x10e>
   137b4:	bfb5                	j	13730 <eshift.part.0+0xd4>
   137b6:	4985                	li	s3,1
   137b8:	03099513          	slli	a0,s3,0x30
   137bc:	9141                	srli	a0,a0,0x30
   137be:	bfd9                	j	13794 <eshift.part.0+0x138>
   137c0:	854e                	mv	a0,s3
   137c2:	00099563          	bnez	s3,137cc <eshift.part.0+0x170>
   137c6:	1542                	slli	a0,a0,0x30
   137c8:	9141                	srli	a0,a0,0x30
   137ca:	b729                	j	136d4 <eshift.part.0+0x78>
   137cc:	4505                	li	a0,1
   137ce:	bfe5                	j	137c6 <eshift.part.0+0x16a>
   137d0:	57e5                	li	a5,-7
   137d2:	4981                	li	s3,0
   137d4:	f8f5dde3          	bge	a1,a5,1376e <eshift.part.0+0x112>
   137d8:	00440693          	addi	a3,s0,4
   137dc:	bfb1                	j	13738 <eshift.part.0+0xdc>

00000000000137de <enormlz>:
   137de:	00455783          	lhu	a5,4(a0)
   137e2:	1101                	addi	sp,sp,-32
   137e4:	e426                	sd	s1,8(sp)
   137e6:	ec06                	sd	ra,24(sp)
   137e8:	e822                	sd	s0,16(sp)
   137ea:	e04a                	sd	s2,0(sp)
   137ec:	84aa                	mv	s1,a0
   137ee:	ebc5                	bnez	a5,1389e <enormlz+0xc0>
   137f0:	00655703          	lhu	a4,6(a0)
   137f4:	4401                	li	s0,0
   137f6:	0107179b          	slliw	a5,a4,0x10
   137fa:	4107d79b          	sraiw	a5,a5,0x10
   137fe:	02079693          	slli	a3,a5,0x20
   13802:	0806c763          	bltz	a3,13890 <enormlz+0xb2>
   13806:	01a50693          	addi	a3,a0,26
   1380a:	0a000613          	li	a2,160
   1380e:	e31d                	bnez	a4,13834 <enormlz+0x56>
   13810:	00648793          	addi	a5,s1,6
   13814:	a019                	j	1381a <enormlz+0x3c>
   13816:	0007d703          	lhu	a4,0(a5)
   1381a:	0789                	addi	a5,a5,2
   1381c:	fee79e23          	sh	a4,-4(a5)
   13820:	fef69be3          	bne	a3,a5,13816 <enormlz+0x38>
   13824:	00049c23          	sh	zero,24(s1)
   13828:	2441                	addiw	s0,s0,16
   1382a:	06c40363          	beq	s0,a2,13890 <enormlz+0xb2>
   1382e:	0064d703          	lhu	a4,6(s1)
   13832:	df79                	beqz	a4,13810 <enormlz+0x32>
   13834:	f0077793          	andi	a5,a4,-256
   13838:	eb8d                	bnez	a5,1386a <enormlz+0x8c>
   1383a:	01848513          	addi	a0,s1,24
   1383e:	00248593          	addi	a1,s1,2
   13842:	4781                	li	a5,0
   13844:	872a                	mv	a4,a0
   13846:	00075683          	lhu	a3,0(a4)
   1384a:	1779                	addi	a4,a4,-2
   1384c:	00869613          	slli	a2,a3,0x8
   13850:	8fd1                	or	a5,a5,a2
   13852:	00f71123          	sh	a5,2(a4)
   13856:	0086d793          	srli	a5,a3,0x8
   1385a:	fee596e3          	bne	a1,a4,13846 <enormlz+0x68>
   1385e:	0064d703          	lhu	a4,6(s1)
   13862:	2421                	addiw	s0,s0,8
   13864:	f0077793          	andi	a5,a4,-256
   13868:	dfe9                	beqz	a5,13842 <enormlz+0x64>
   1386a:	0a000913          	li	s2,160
   1386e:	a801                	j	1387e <enormlz+0xa0>
   13870:	2405                	addiw	s0,s0,1
   13872:	b1bff0ef          	jal	ra,1338c <eshup1>
   13876:	00894d63          	blt	s2,s0,13890 <enormlz+0xb2>
   1387a:	0064d703          	lhu	a4,6(s1)
   1387e:	0107171b          	slliw	a4,a4,0x10
   13882:	4107571b          	sraiw	a4,a4,0x10
   13886:	02071793          	slli	a5,a4,0x20
   1388a:	8526                	mv	a0,s1
   1388c:	fe07d2e3          	bgez	a5,13870 <enormlz+0x92>
   13890:	60e2                	ld	ra,24(sp)
   13892:	8522                	mv	a0,s0
   13894:	6442                	ld	s0,16(sp)
   13896:	64a2                	ld	s1,8(sp)
   13898:	6902                	ld	s2,0(sp)
   1389a:	6105                	addi	sp,sp,32
   1389c:	8082                	ret
   1389e:	f007f713          	andi	a4,a5,-256
   138a2:	4401                	li	s0,0
   138a4:	e705                	bnez	a4,138cc <enormlz+0xee>
   138a6:	f6f00913          	li	s2,-145
   138aa:	a801                	j	138ba <enormlz+0xdc>
   138ac:	347d                	addiw	s0,s0,-1
   138ae:	a93ff0ef          	jal	ra,13340 <eshdn1>
   138b2:	fd240fe3          	beq	s0,s2,13890 <enormlz+0xb2>
   138b6:	0044d783          	lhu	a5,4(s1)
   138ba:	8526                	mv	a0,s1
   138bc:	fbe5                	bnez	a5,138ac <enormlz+0xce>
   138be:	60e2                	ld	ra,24(sp)
   138c0:	8522                	mv	a0,s0
   138c2:	6442                	ld	s0,16(sp)
   138c4:	64a2                	ld	s1,8(sp)
   138c6:	6902                	ld	s2,0(sp)
   138c8:	6105                	addi	sp,sp,32
   138ca:	8082                	ret
   138cc:	00450693          	addi	a3,a0,4
   138d0:	01a50593          	addi	a1,a0,26
   138d4:	4701                	li	a4,0
   138d6:	a019                	j	138dc <enormlz+0xfe>
   138d8:	0006d783          	lhu	a5,0(a3)
   138dc:	0087d61b          	srliw	a2,a5,0x8
   138e0:	8f51                	or	a4,a4,a2
   138e2:	0087979b          	slliw	a5,a5,0x8
   138e6:	00e69023          	sh	a4,0(a3)
   138ea:	03079713          	slli	a4,a5,0x30
   138ee:	0689                	addi	a3,a3,2
   138f0:	9341                	srli	a4,a4,0x30
   138f2:	feb693e3          	bne	a3,a1,138d8 <enormlz+0xfa>
   138f6:	0044d783          	lhu	a5,4(s1)
   138fa:	5461                	li	s0,-8
   138fc:	b76d                	j	138a6 <enormlz+0xc8>

00000000000138fe <emdnorm>:
   138fe:	7139                	addi	sp,sp,-64
   13900:	f822                	sd	s0,48(sp)
   13902:	f426                	sd	s1,40(sp)
   13904:	f04a                	sd	s2,32(sp)
   13906:	ec4e                	sd	s3,24(sp)
   13908:	e852                	sd	s4,16(sp)
   1390a:	e456                	sd	s5,8(sp)
   1390c:	8936                	mv	s2,a3
   1390e:	84be                	mv	s1,a5
   13910:	fc06                	sd	ra,56(sp)
   13912:	842a                	mv	s0,a0
   13914:	89ae                	mv	s3,a1
   13916:	8a32                	mv	s4,a2
   13918:	8aba                	mv	s5,a4
   1391a:	ec5ff0ef          	jal	ra,137de <enormlz>
   1391e:	09000793          	li	a5,144
   13922:	40a90933          	sub	s2,s2,a0
   13926:	12a7db63          	bge	a5,a0,13a5c <emdnorm+0x15e>
   1392a:	67a1                	lui	a5,0x8
   1392c:	17f9                	addi	a5,a5,-2
   1392e:	1927dd63          	bge	a5,s2,13ac8 <emdnorm+0x1ca>
   13932:	160a8b63          	beqz	s5,13aa8 <emdnorm+0x1aa>
   13936:	40c8                	lw	a0,4(s1)
   13938:	409c                	lw	a5,0(s1)
   1393a:	04a78e63          	beq	a5,a0,13996 <emdnorm+0x98>
   1393e:	01a48713          	addi	a4,s1,26
   13942:	03448793          	addi	a5,s1,52
   13946:	0709                	addi	a4,a4,2
   13948:	fe071f23          	sh	zero,-2(a4)
   1394c:	fef71de3          	bne	a4,a5,13946 <emdnorm+0x48>
   13950:	03800793          	li	a5,56
   13954:	28f50263          	beq	a0,a5,13bd8 <emdnorm+0x2da>
   13958:	12a7d163          	bge	a5,a0,13a7a <emdnorm+0x17c>
   1395c:	04000793          	li	a5,64
   13960:	24f50c63          	beq	a0,a5,13bb8 <emdnorm+0x2ba>
   13964:	07100793          	li	a5,113
   13968:	28f51163          	bne	a0,a5,13bea <emdnorm+0x2ec>
   1396c:	47a9                	li	a5,10
   1396e:	40008737          	lui	a4,0x40008
   13972:	177d                	addi	a4,a4,-1
   13974:	1782                	slli	a5,a5,0x20
   13976:	07a9                	addi	a5,a5,10
   13978:	c8d8                	sw	a4,20(s1)
   1397a:	7761                	lui	a4,0xffff8
   1397c:	00e49c23          	sh	a4,24(s1)
   13980:	e49c                	sd	a5,8(s1)
   13982:	6721                	lui	a4,0x8
   13984:	47a9                	li	a5,10
   13986:	07a1                	addi	a5,a5,8
   13988:	0786                	slli	a5,a5,0x1
   1398a:	97a6                	add	a5,a5,s1
   1398c:	00e79523          	sh	a4,10(a5) # 800a <register_fini-0x80a6>
   13990:	c088                	sw	a0,0(s1)
   13992:	17205163          	blez	s2,13af4 <emdnorm+0x1f6>
   13996:	4494                	lw	a3,8(s1)
   13998:	0144d603          	lhu	a2,20(s1)
   1399c:	08f00793          	li	a5,143
   139a0:	00169713          	slli	a4,a3,0x1
   139a4:	00e40833          	add	a6,s0,a4
   139a8:	00085883          	lhu	a7,0(a6) # ffffffffffff8000 <__BSS_END__+0xfffffffffffbf948>
   139ac:	00c8f5b3          	and	a1,a7,a2
   139b0:	02a7ce63          	blt	a5,a0,139ec <emdnorm+0xee>
   139b4:	47ad                	li	a5,11
   139b6:	02d7cb63          	blt	a5,a3,139ec <emdnorm+0xee>
   139ba:	9f95                	subw	a5,a5,a3
   139bc:	1782                	slli	a5,a5,0x20
   139be:	9381                	srli	a5,a5,0x20
   139c0:	97b6                	add	a5,a5,a3
   139c2:	00179693          	slli	a3,a5,0x1
   139c6:	0709                	addi	a4,a4,2
   139c8:	00440793          	addi	a5,s0,4
   139cc:	9722                	add	a4,a4,s0
   139ce:	97b6                	add	a5,a5,a3
   139d0:	00075683          	lhu	a3,0(a4) # 8000 <register_fini-0x80b0>
   139d4:	c299                	beqz	a3,139da <emdnorm+0xdc>
   139d6:	0015e593          	ori	a1,a1,1
   139da:	00071023          	sh	zero,0(a4)
   139de:	0709                	addi	a4,a4,2
   139e0:	fee798e3          	bne	a5,a4,139d0 <emdnorm+0xd2>
   139e4:	00085883          	lhu	a7,0(a6)
   139e8:	0144d603          	lhu	a2,20(s1)
   139ec:	fff64613          	not	a2,a2
   139f0:	01167633          	and	a2,a2,a7
   139f4:	00c81023          	sh	a2,0(a6)
   139f8:	0164d783          	lhu	a5,22(s1)
   139fc:	00b7f733          	and	a4,a5,a1
   13a00:	cb05                	beqz	a4,13a30 <emdnorm+0x132>
   13a02:	12b78f63          	beq	a5,a1,13b40 <emdnorm+0x242>
   13a06:	03248613          	addi	a2,s1,50
   13a0a:	01840693          	addi	a3,s0,24
   13a0e:	04f1                	addi	s1,s1,28
   13a10:	4701                	li	a4,0
   13a12:	00065783          	lhu	a5,0(a2)
   13a16:	0006d583          	lhu	a1,0(a3)
   13a1a:	16f9                	addi	a3,a3,-2
   13a1c:	1679                	addi	a2,a2,-2
   13a1e:	97ae                	add	a5,a5,a1
   13a20:	97ba                	add	a5,a5,a4
   13a22:	0107d713          	srli	a4,a5,0x10
   13a26:	00f69123          	sh	a5,2(a3)
   13a2a:	8b05                	andi	a4,a4,1
   13a2c:	fe9613e3          	bne	a2,s1,13a12 <emdnorm+0x114>
   13a30:	13205663          	blez	s2,13b5c <emdnorm+0x25e>
   13a34:	00445783          	lhu	a5,4(s0)
   13a38:	e7ed                	bnez	a5,13b22 <emdnorm+0x224>
   13a3a:	67a1                	lui	a5,0x8
   13a3c:	00041c23          	sh	zero,24(s0)
   13a40:	17f9                	addi	a5,a5,-2
   13a42:	0727c563          	blt	a5,s2,13aac <emdnorm+0x1ae>
   13a46:	01241123          	sh	s2,2(s0)
   13a4a:	70e2                	ld	ra,56(sp)
   13a4c:	7442                	ld	s0,48(sp)
   13a4e:	74a2                	ld	s1,40(sp)
   13a50:	7902                	ld	s2,32(sp)
   13a52:	69e2                	ld	s3,24(sp)
   13a54:	6a42                	ld	s4,16(sp)
   13a56:	6aa2                	ld	s5,8(sp)
   13a58:	6121                	addi	sp,sp,64
   13a5a:	8082                	ret
   13a5c:	0a095a63          	bgez	s2,13b10 <emdnorm+0x212>
   13a60:	f7000793          	li	a5,-144
   13a64:	06f95b63          	bge	s2,a5,13ada <emdnorm+0x1dc>
   13a68:	00240793          	addi	a5,s0,2
   13a6c:	0469                	addi	s0,s0,26
   13a6e:	0789                	addi	a5,a5,2
   13a70:	fe079f23          	sh	zero,-2(a5) # 7ffe <register_fini-0x80b2>
   13a74:	fe879de3          	bne	a5,s0,13a6e <emdnorm+0x170>
   13a78:	bfc9                	j	13a4a <emdnorm+0x14c>
   13a7a:	47e1                	li	a5,24
   13a7c:	10f50f63          	beq	a0,a5,13b9a <emdnorm+0x29c>
   13a80:	03500793          	li	a5,53
   13a84:	16f51363          	bne	a0,a5,13bea <emdnorm+0x2ec>
   13a88:	040006b7          	lui	a3,0x4000
   13a8c:	6705                	lui	a4,0x1
   13a8e:	7ff68693          	addi	a3,a3,2047 # 40007ff <__BSS_END__+0x3fc8147>
   13a92:	4799                	li	a5,6
   13a94:	80070713          	addi	a4,a4,-2048 # 800 <register_fini-0xf8b0>
   13a98:	c8d4                	sw	a3,20(s1)
   13a9a:	1782                	slli	a5,a5,0x20
   13a9c:	0799                	addi	a5,a5,6
   13a9e:	e49c                	sd	a5,8(s1)
   13aa0:	00e49c23          	sh	a4,24(s1)
   13aa4:	4799                	li	a5,6
   13aa6:	b5c5                	j	13986 <emdnorm+0x88>
   13aa8:	00041c23          	sh	zero,24(s0)
   13aac:	77e1                	lui	a5,0xffff8
   13aae:	fff7c793          	not	a5,a5
   13ab2:	00f41123          	sh	a5,2(s0)
   13ab6:	00440793          	addi	a5,s0,4
   13aba:	0461                	addi	s0,s0,24
   13abc:	00079023          	sh	zero,0(a5) # ffffffffffff8000 <__BSS_END__+0xfffffffffffbf948>
   13ac0:	0789                	addi	a5,a5,2
   13ac2:	fef41de3          	bne	s0,a5,13abc <emdnorm+0x1be>
   13ac6:	b751                	j	13a4a <emdnorm+0x14c>
   13ac8:	00240793          	addi	a5,s0,2
   13acc:	0469                	addi	s0,s0,26
   13ace:	0789                	addi	a5,a5,2
   13ad0:	fe079f23          	sh	zero,-2(a5)
   13ad4:	fe879de3          	bne	a5,s0,13ace <emdnorm+0x1d0>
   13ad8:	bf8d                	j	13a4a <emdnorm+0x14c>
   13ada:	0009059b          	sext.w	a1,s2
   13ade:	8522                	mv	a0,s0
   13ae0:	b7dff0ef          	jal	ra,1365c <eshift.part.0>
   13ae4:	c111                	beqz	a0,13ae8 <emdnorm+0x1ea>
   13ae6:	4985                	li	s3,1
   13ae8:	0a0a8463          	beqz	s5,13b90 <emdnorm+0x292>
   13aec:	40c8                	lw	a0,4(s1)
   13aee:	409c                	lw	a5,0(s1)
   13af0:	e4a797e3          	bne	a5,a0,1393e <emdnorm+0x40>
   13af4:	09000793          	li	a5,144
   13af8:	08f50163          	beq	a0,a5,13b7a <emdnorm+0x27c>
   13afc:	01845783          	lhu	a5,24(s0)
   13b00:	8522                	mv	a0,s0
   13b02:	8b85                	andi	a5,a5,1
   13b04:	00f9e9b3          	or	s3,s3,a5
   13b08:	839ff0ef          	jal	ra,13340 <eshdn1>
   13b0c:	40c8                	lw	a0,4(s1)
   13b0e:	b561                	j	13996 <emdnorm+0x98>
   13b10:	f20a85e3          	beqz	s5,13a3a <emdnorm+0x13c>
   13b14:	40c8                	lw	a0,4(s1)
   13b16:	409c                	lw	a5,0(s1)
   13b18:	e2a793e3          	bne	a5,a0,1393e <emdnorm+0x40>
   13b1c:	e7204de3          	bgtz	s2,13996 <emdnorm+0x98>
   13b20:	bfd1                	j	13af4 <emdnorm+0x1f6>
   13b22:	8522                	mv	a0,s0
   13b24:	81dff0ef          	jal	ra,13340 <eshdn1>
   13b28:	67a1                	lui	a5,0x8
   13b2a:	0905                	addi	s2,s2,1
   13b2c:	00041c23          	sh	zero,24(s0)
   13b30:	17f9                	addi	a5,a5,-2
   13b32:	f727cde3          	blt	a5,s2,13aac <emdnorm+0x1ae>
   13b36:	f00958e3          	bgez	s2,13a46 <emdnorm+0x148>
   13b3a:	00041123          	sh	zero,2(s0)
   13b3e:	b731                	j	13a4a <emdnorm+0x14c>
   13b40:	08099963          	bnez	s3,13bd2 <emdnorm+0x2d4>
   13b44:	44dc                	lw	a5,12(s1)
   13b46:	0184d703          	lhu	a4,24(s1)
   13b4a:	0786                	slli	a5,a5,0x1
   13b4c:	97a2                	add	a5,a5,s0
   13b4e:	0007d783          	lhu	a5,0(a5) # 8000 <register_fini-0x80b0>
   13b52:	8ff9                	and	a5,a5,a4
   13b54:	ea0799e3          	bnez	a5,13a06 <emdnorm+0x108>
   13b58:	ed204ee3          	bgtz	s2,13a34 <emdnorm+0x136>
   13b5c:	09000793          	li	a5,144
   13b60:	00f50563          	beq	a0,a5,13b6a <emdnorm+0x26c>
   13b64:	8522                	mv	a0,s0
   13b66:	827ff0ef          	jal	ra,1338c <eshup1>
   13b6a:	00445783          	lhu	a5,4(s0)
   13b6e:	fbd5                	bnez	a5,13b22 <emdnorm+0x224>
   13b70:	00041c23          	sh	zero,24(s0)
   13b74:	fc0943e3          	bltz	s2,13b3a <emdnorm+0x23c>
   13b78:	b5f9                	j	13a46 <emdnorm+0x148>
   13b7a:	0084a803          	lw	a6,8(s1)
   13b7e:	0144d603          	lhu	a2,20(s1)
   13b82:	0806                	slli	a6,a6,0x1
   13b84:	9822                	add	a6,a6,s0
   13b86:	00085883          	lhu	a7,0(a6)
   13b8a:	011675b3          	and	a1,a2,a7
   13b8e:	bdb9                	j	139ec <emdnorm+0xee>
   13b90:	00041c23          	sh	zero,24(s0)
   13b94:	00041123          	sh	zero,2(s0)
   13b98:	bd4d                	j	13a4a <emdnorm+0x14c>
   13b9a:	4791                	li	a5,4
   13b9c:	00800737          	lui	a4,0x800
   13ba0:	0ff70713          	addi	a4,a4,255 # 8000ff <__BSS_END__+0x7c7a47>
   13ba4:	1782                	slli	a5,a5,0x20
   13ba6:	0791                	addi	a5,a5,4
   13ba8:	c8d8                	sw	a4,20(s1)
   13baa:	10000713          	li	a4,256
   13bae:	e49c                	sd	a5,8(s1)
   13bb0:	00e49c23          	sh	a4,24(s1)
   13bb4:	4791                	li	a5,4
   13bb6:	bbc1                	j	13986 <emdnorm+0x88>
   13bb8:	478d                	li	a5,3
   13bba:	80010737          	lui	a4,0x80010
   13bbe:	177d                	addi	a4,a4,-1
   13bc0:	1786                	slli	a5,a5,0x21
   13bc2:	079d                	addi	a5,a5,7
   13bc4:	c8d8                	sw	a4,20(s1)
   13bc6:	4705                	li	a4,1
   13bc8:	e49c                	sd	a5,8(s1)
   13bca:	00e49c23          	sh	a4,24(s1)
   13bce:	4799                	li	a5,6
   13bd0:	bb5d                	j	13986 <emdnorm+0x88>
   13bd2:	e20a0ae3          	beqz	s4,13a06 <emdnorm+0x108>
   13bd6:	bda9                	j	13a30 <emdnorm+0x132>
   13bd8:	00800737          	lui	a4,0x800
   13bdc:	0ff70713          	addi	a4,a4,255 # 8000ff <__BSS_END__+0x7c7a47>
   13be0:	c8d8                	sw	a4,20(s1)
   13be2:	4799                	li	a5,6
   13be4:	10000713          	li	a4,256
   13be8:	bd4d                	j	13a9a <emdnorm+0x19c>
   13bea:	47ad                	li	a5,11
   13bec:	80010737          	lui	a4,0x80010
   13bf0:	177d                	addi	a4,a4,-1
   13bf2:	1782                	slli	a5,a5,0x20
   13bf4:	07b1                	addi	a5,a5,12
   13bf6:	c8d8                	sw	a4,20(s1)
   13bf8:	4705                	li	a4,1
   13bfa:	e49c                	sd	a5,8(s1)
   13bfc:	00e49c23          	sh	a4,24(s1)
   13c00:	47ad                	li	a5,11
   13c02:	b351                	j	13986 <emdnorm+0x88>

0000000000013c04 <eiremain>:
   13c04:	711d                	addi	sp,sp,-96
   13c06:	e4a6                	sd	s1,72(sp)
   13c08:	fc4e                	sd	s3,56(sp)
   13c0a:	84ae                	mv	s1,a1
   13c0c:	00255983          	lhu	s3,2(a0)
   13c10:	ec86                	sd	ra,88(sp)
   13c12:	e8a2                	sd	s0,80(sp)
   13c14:	e0ca                	sd	s2,64(sp)
   13c16:	f852                	sd	s4,48(sp)
   13c18:	8932                	mv	s2,a2
   13c1a:	f456                	sd	s5,40(sp)
   13c1c:	f05a                	sd	s6,32(sp)
   13c1e:	ec5e                	sd	s7,24(sp)
   13c20:	e862                	sd	s8,16(sp)
   13c22:	e466                	sd	s9,8(sp)
   13c24:	e06a                	sd	s10,0(sp)
   13c26:	8a2a                	mv	s4,a0
   13c28:	bb7ff0ef          	jal	ra,137de <enormlz>
   13c2c:	0024d403          	lhu	s0,2(s1)
   13c30:	87aa                	mv	a5,a0
   13c32:	8526                	mv	a0,s1
   13c34:	40f989b3          	sub	s3,s3,a5
   13c38:	03490a93          	addi	s5,s2,52
   13c3c:	ba3ff0ef          	jal	ra,137de <enormlz>
   13c40:	8c09                	sub	s0,s0,a0
   13c42:	04e90713          	addi	a4,s2,78
   13c46:	87d6                	mv	a5,s5
   13c48:	0789                	addi	a5,a5,2
   13c4a:	fe079f23          	sh	zero,-2(a5)
   13c4e:	fee79de3          	bne	a5,a4,13c48 <eiremain+0x44>
   13c52:	07344b63          	blt	s0,s3,13cc8 <eiremain+0xc4>
   13c56:	004a0b93          	addi	s7,s4,4
   13c5a:	00448b13          	addi	s6,s1,4
   13c5e:	19fd                	addi	s3,s3,-1
   13c60:	01aa0c93          	addi	s9,s4,26
   13c64:	00248c13          	addi	s8,s1,2
   13c68:	875a                	mv	a4,s6
   13c6a:	87de                	mv	a5,s7
   13c6c:	0007d603          	lhu	a2,0(a5)
   13c70:	00075683          	lhu	a3,0(a4) # ffffffff80010000 <__BSS_END__+0xffffffff7ffd7948>
   13c74:	0789                	addi	a5,a5,2
   13c76:	0709                	addi	a4,a4,2
   13c78:	06d61c63          	bne	a2,a3,13cf0 <eiremain+0xec>
   13c7c:	fefc98e3          	bne	s9,a5,13c6c <eiremain+0x68>
   13c80:	018a0613          	addi	a2,s4,24
   13c84:	01848713          	addi	a4,s1,24
   13c88:	4681                	li	a3,0
   13c8a:	00075783          	lhu	a5,0(a4)
   13c8e:	00065583          	lhu	a1,0(a2)
   13c92:	1779                	addi	a4,a4,-2
   13c94:	8f95                	sub	a5,a5,a3
   13c96:	8f8d                	sub	a5,a5,a1
   13c98:	0107d693          	srli	a3,a5,0x10
   13c9c:	00f71123          	sh	a5,2(a4)
   13ca0:	8a85                	andi	a3,a3,1
   13ca2:	1679                	addi	a2,a2,-2
   13ca4:	feec13e3          	bne	s8,a4,13c8a <eiremain+0x86>
   13ca8:	4d05                	li	s10,1
   13caa:	8556                	mv	a0,s5
